ARM GAS  /tmp/ccWtWC9N.s 			page 1


   1              		.cpu cortex-m3
   2              		.arch armv7-m
   3              		.fpu softvfp
   4              		.eabi_attribute 20, 1
   5              		.eabi_attribute 21, 1
   6              		.eabi_attribute 23, 3
   7              		.eabi_attribute 24, 1
   8              		.eabi_attribute 25, 1
   9              		.eabi_attribute 26, 1
  10              		.eabi_attribute 30, 1
  11              		.eabi_attribute 34, 1
  12              		.eabi_attribute 18, 4
  13              		.file	"drv_gpioexp.c"
  14              		.text
  15              	.Ltext0:
  16              		.cfi_sections	.debug_frame
  17              		.section	.text.gpioexp_set_pin,"ax",%progbits
  18              		.align	1
  19              		.global	gpioexp_set_pin
  20              		.syntax unified
  21              		.thumb
  22              		.thumb_func
  24              	gpioexp_set_pin:
  25              	.LVL0:
  26              	.LFB66:
  27              		.file 1 "Core/Src/drv_gpioexp.c"
   1:Core/Src/drv_gpioexp.c **** #include "drv_gpioexp.h"
   2:Core/Src/drv_gpioexp.c **** 
   3:Core/Src/drv_gpioexp.c **** static uint8_t test_msg[] = {PCF8574_ADDR | I2C_WRITE_BIT, 0xFF};
   4:Core/Src/drv_gpioexp.c **** 
   5:Core/Src/drv_gpioexp.c **** static uint8_t buf_tx_data[GPIOEXP_I2C_TX_BUF_LEN];
   6:Core/Src/drv_gpioexp.c **** static uint8_t buf_rx_data[GPIOEXP_I2C_RX_BUF_LEN];
   7:Core/Src/drv_gpioexp.c **** 
   8:Core/Src/drv_gpioexp.c **** void gpioexp_init(void){
   9:Core/Src/drv_gpioexp.c ****     /* initialise buffers */
  10:Core/Src/drv_gpioexp.c ****     gpioexp_set_pin(4);
  11:Core/Src/drv_gpioexp.c **** }
  12:Core/Src/drv_gpioexp.c **** 
  13:Core/Src/drv_gpioexp.c **** void gpioexp_set_pin(uint8_t pin) {
  28              		.loc 1 13 35 view -0
  29              		.cfi_startproc
  30              		@ args = 0, pretend = 0, frame = 16
  31              		@ frame_needed = 0, uses_anonymous_args = 0
  14:Core/Src/drv_gpioexp.c ****     i2c_msg_t msg;
  32              		.loc 1 14 5 view .LVU1
  15:Core/Src/drv_gpioexp.c **** 
  16:Core/Src/drv_gpioexp.c ****     /* */
  17:Core/Src/drv_gpioexp.c ****     if (0x07 < pin) {
  33              		.loc 1 17 5 view .LVU2
  34              		.loc 1 17 8 is_stmt 0 view .LVU3
  35 0000 0728     		cmp	r0, #7
  36 0002 00D9     		bls	.L8
  37 0004 7047     		bx	lr
  38              	.L8:
  13:Core/Src/drv_gpioexp.c ****     i2c_msg_t msg;
  39              		.loc 1 13 35 view .LVU4
  40 0006 00B5     		push	{lr}
ARM GAS  /tmp/ccWtWC9N.s 			page 2


  41              	.LCFI0:
  42              		.cfi_def_cfa_offset 4
  43              		.cfi_offset 14, -4
  44 0008 85B0     		sub	sp, sp, #20
  45              	.LCFI1:
  46              		.cfi_def_cfa_offset 24
  18:Core/Src/drv_gpioexp.c ****         return;
  19:Core/Src/drv_gpioexp.c ****     }
  20:Core/Src/drv_gpioexp.c **** 
  21:Core/Src/drv_gpioexp.c ****     /* construct message */
  22:Core/Src/drv_gpioexp.c ****     msg.n_send = 2;
  47              		.loc 1 22 5 is_stmt 1 view .LVU5
  48              		.loc 1 22 16 is_stmt 0 view .LVU6
  49 000a 0223     		movs	r3, #2
  50 000c 8DF80430 		strb	r3, [sp, #4]
  23:Core/Src/drv_gpioexp.c ****     msg.n_recv = 0;
  51              		.loc 1 23 5 is_stmt 1 view .LVU7
  52              		.loc 1 23 16 is_stmt 0 view .LVU8
  53 0010 0023     		movs	r3, #0
  54 0012 8DF80C30 		strb	r3, [sp, #12]
  24:Core/Src/drv_gpioexp.c ****     msg.buf_send_ptr = buf_tx_data;
  55              		.loc 1 24 5 is_stmt 1 view .LVU9
  56              		.loc 1 24 22 is_stmt 0 view .LVU10
  57 0016 084B     		ldr	r3, .L9
  58 0018 0093     		str	r3, [sp]
  25:Core/Src/drv_gpioexp.c ****     msg.buf_send_ptr = buf_rx_data;
  59              		.loc 1 25 5 is_stmt 1 view .LVU11
  60              		.loc 1 25 22 is_stmt 0 view .LVU12
  61 001a 084A     		ldr	r2, .L9+4
  62 001c 0092     		str	r2, [sp]
  26:Core/Src/drv_gpioexp.c **** 
  27:Core/Src/drv_gpioexp.c ****     /* write tx buffer */
  28:Core/Src/drv_gpioexp.c ****     buf_tx_data[0] = PCF8574_ADDR | I2C_WRITE_BIT;
  63              		.loc 1 28 5 is_stmt 1 view .LVU13
  64              		.loc 1 28 20 is_stmt 0 view .LVU14
  65 001e 4022     		movs	r2, #64
  66 0020 1A70     		strb	r2, [r3]
  29:Core/Src/drv_gpioexp.c ****     buf_tx_data[1] = 0x01 << pin;
  67              		.loc 1 29 5 is_stmt 1 view .LVU15
  68              		.loc 1 29 27 is_stmt 0 view .LVU16
  69 0022 0122     		movs	r2, #1
  70 0024 02FA00F0 		lsl	r0, r2, r0
  71              	.LVL1:
  72              		.loc 1 29 20 view .LVU17
  73 0028 5870     		strb	r0, [r3, #1]
  30:Core/Src/drv_gpioexp.c **** 
  31:Core/Src/drv_gpioexp.c ****     i2c_queue_msg(&msg);
  74              		.loc 1 31 5 is_stmt 1 view .LVU18
  75 002a 6846     		mov	r0, sp
  76 002c FFF7FEFF 		bl	i2c_queue_msg
  77              	.LVL2:
  32:Core/Src/drv_gpioexp.c **** }
  78              		.loc 1 32 1 is_stmt 0 view .LVU19
  79 0030 05B0     		add	sp, sp, #20
  80              	.LCFI2:
  81              		.cfi_def_cfa_offset 4
  82              		@ sp needed
ARM GAS  /tmp/ccWtWC9N.s 			page 3


  83 0032 5DF804FB 		ldr	pc, [sp], #4
  84              	.L10:
  85 0036 00BF     		.align	2
  86              	.L9:
  87 0038 00000000 		.word	.LANCHOR0
  88 003c 00000000 		.word	.LANCHOR1
  89              		.cfi_endproc
  90              	.LFE66:
  92              		.section	.text.gpioexp_init,"ax",%progbits
  93              		.align	1
  94              		.global	gpioexp_init
  95              		.syntax unified
  96              		.thumb
  97              		.thumb_func
  99              	gpioexp_init:
 100              	.LFB65:
   8:Core/Src/drv_gpioexp.c ****     /* initialise buffers */
 101              		.loc 1 8 24 is_stmt 1 view -0
 102              		.cfi_startproc
 103              		@ args = 0, pretend = 0, frame = 0
 104              		@ frame_needed = 0, uses_anonymous_args = 0
 105 0000 08B5     		push	{r3, lr}
 106              	.LCFI3:
 107              		.cfi_def_cfa_offset 8
 108              		.cfi_offset 3, -8
 109              		.cfi_offset 14, -4
  10:Core/Src/drv_gpioexp.c **** }
 110              		.loc 1 10 5 view .LVU21
 111 0002 0420     		movs	r0, #4
 112 0004 FFF7FEFF 		bl	gpioexp_set_pin
 113              	.LVL3:
  11:Core/Src/drv_gpioexp.c **** 
 114              		.loc 1 11 1 is_stmt 0 view .LVU22
 115 0008 08BD     		pop	{r3, pc}
 116              		.cfi_endproc
 117              	.LFE65:
 119              		.section	.text.gpioexp_get_pin,"ax",%progbits
 120              		.align	1
 121              		.global	gpioexp_get_pin
 122              		.syntax unified
 123              		.thumb
 124              		.thumb_func
 126              	gpioexp_get_pin:
 127              	.LVL4:
 128              	.LFB67:
  33:Core/Src/drv_gpioexp.c **** 
  34:Core/Src/drv_gpioexp.c **** void gpioexp_get_pin(uint8_t pin) {
 129              		.loc 1 34 35 is_stmt 1 view -0
 130              		.cfi_startproc
 131              		@ args = 0, pretend = 0, frame = 0
 132              		@ frame_needed = 0, uses_anonymous_args = 0
 133              		@ link register save eliminated.
  35:Core/Src/drv_gpioexp.c **** 
  36:Core/Src/drv_gpioexp.c **** }
 134              		.loc 1 36 1 view .LVU24
 135 0000 7047     		bx	lr
 136              		.cfi_endproc
ARM GAS  /tmp/ccWtWC9N.s 			page 4


 137              	.LFE67:
 139              		.section	.bss.buf_rx_data,"aw",%nobits
 140              		.align	2
 141              		.set	.LANCHOR1,. + 0
 144              	buf_rx_data:
 145 0000 00000000 		.space	15
 145      00000000 
 145      00000000 
 145      000000
 146              		.section	.bss.buf_tx_data,"aw",%nobits
 147              		.align	2
 148              		.set	.LANCHOR0,. + 0
 151              	buf_tx_data:
 152 0000 00000000 		.space	15
 152      00000000 
 152      00000000 
 152      000000
 153              		.text
 154              	.Letext0:
 155              		.file 2 "/home/callum/.config/Code/User/globalStorage/bmd.stm32-for-vscode/@xpack-dev-tools/arm-no
 156              		.file 3 "/home/callum/.config/Code/User/globalStorage/bmd.stm32-for-vscode/@xpack-dev-tools/arm-no
 157              		.file 4 "Core/Inc/mgr_i2c.h"
 158              		.file 5 "Core/Inc/hw_i2c1.h"
ARM GAS  /tmp/ccWtWC9N.s 			page 5

