ARM GAS  /tmp/ccMfwHgS.s 			page 1


   1              		.cpu cortex-m3
   2              		.arch armv7-m
   3              		.fpu softvfp
   4              		.eabi_attribute 20, 1
   5              		.eabi_attribute 21, 1
   6              		.eabi_attribute 23, 3
   7              		.eabi_attribute 24, 1
   8              		.eabi_attribute 25, 1
   9              		.eabi_attribute 26, 1
  10              		.eabi_attribute 30, 1
  11              		.eabi_attribute 34, 1
  12              		.eabi_attribute 18, 4
  13              		.file	"hw_usart1.c"
  14              		.text
  15              	.Ltext0:
  16              		.cfi_sections	.debug_frame
  17              		.section	.text.MX_USART1_UART_Init,"ax",%progbits
  18              		.align	1
  19              		.global	MX_USART1_UART_Init
  20              		.syntax unified
  21              		.thumb
  22              		.thumb_func
  24              	MX_USART1_UART_Init:
  25              	.LFB65:
  26              		.file 1 "Core/Src/hw_usart1.c"
   1:Core/Src/hw_usart1.c **** /* USER CODE BEGIN Header */
   2:Core/Src/hw_usart1.c **** /**
   3:Core/Src/hw_usart1.c ****   ******************************************************************************
   4:Core/Src/hw_usart1.c ****   * @file           : main.c
   5:Core/Src/hw_usart1.c ****   * @brief          : Main program body
   6:Core/Src/hw_usart1.c ****   ******************************************************************************
   7:Core/Src/hw_usart1.c ****   * @attention
   8:Core/Src/hw_usart1.c ****   *
   9:Core/Src/hw_usart1.c ****   * <h2><center>&copy; Copyright (c) 2022 STMicroelectronics.
  10:Core/Src/hw_usart1.c ****   * All rights reserved.</center></h2>
  11:Core/Src/hw_usart1.c ****   *
  12:Core/Src/hw_usart1.c ****   * This software component is licensed by ST under BSD 3-Clause license,
  13:Core/Src/hw_usart1.c ****   * the "License"; You may not use this file except in compliance with the
  14:Core/Src/hw_usart1.c ****   * License. You may obtain a copy of the License at:
  15:Core/Src/hw_usart1.c ****   *                        opensource.org/licenses/BSD-3-Clause
  16:Core/Src/hw_usart1.c ****   *
  17:Core/Src/hw_usart1.c ****   ******************************************************************************
  18:Core/Src/hw_usart1.c ****   */
  19:Core/Src/hw_usart1.c **** /* USER CODE END Header */
  20:Core/Src/hw_usart1.c **** /* Includes ------------------------------------------------------------------*/
  21:Core/Src/hw_usart1.c **** #include "hw_usart1.h"
  22:Core/Src/hw_usart1.c **** 
  23:Core/Src/hw_usart1.c **** UART_HandleTypeDef huart1;
  24:Core/Src/hw_usart1.c **** 
  25:Core/Src/hw_usart1.c **** /**
  26:Core/Src/hw_usart1.c ****   * @brief USART1 Initialization Function
  27:Core/Src/hw_usart1.c ****   * @param None
  28:Core/Src/hw_usart1.c ****   * @retval None
  29:Core/Src/hw_usart1.c ****   */
  30:Core/Src/hw_usart1.c **** void MX_USART1_UART_Init(void)
  31:Core/Src/hw_usart1.c **** {
  27              		.loc 1 31 1 view -0
ARM GAS  /tmp/ccMfwHgS.s 			page 2


  28              		.cfi_startproc
  29              		@ args = 0, pretend = 0, frame = 0
  30              		@ frame_needed = 0, uses_anonymous_args = 0
  31 0000 08B5     		push	{r3, lr}
  32              	.LCFI0:
  33              		.cfi_def_cfa_offset 8
  34              		.cfi_offset 3, -8
  35              		.cfi_offset 14, -4
  32:Core/Src/hw_usart1.c **** 
  33:Core/Src/hw_usart1.c ****   /* USER CODE BEGIN USART1_Init 0 */
  34:Core/Src/hw_usart1.c **** 
  35:Core/Src/hw_usart1.c ****   /* USER CODE END USART1_Init 0 */
  36:Core/Src/hw_usart1.c **** 
  37:Core/Src/hw_usart1.c ****   /* USER CODE BEGIN USART1_Init 1 */
  38:Core/Src/hw_usart1.c **** 
  39:Core/Src/hw_usart1.c ****   /* USER CODE END USART1_Init 1 */
  40:Core/Src/hw_usart1.c ****   huart1.Instance = USART1;
  36              		.loc 1 40 3 view .LVU1
  37              		.loc 1 40 19 is_stmt 0 view .LVU2
  38 0002 0A48     		ldr	r0, .L5
  39 0004 0A4B     		ldr	r3, .L5+4
  40 0006 0360     		str	r3, [r0]
  41:Core/Src/hw_usart1.c ****   huart1.Init.BaudRate = 115200;
  41              		.loc 1 41 3 is_stmt 1 view .LVU3
  42              		.loc 1 41 24 is_stmt 0 view .LVU4
  43 0008 4FF4E133 		mov	r3, #115200
  44 000c 4360     		str	r3, [r0, #4]
  42:Core/Src/hw_usart1.c ****   huart1.Init.WordLength = UART_WORDLENGTH_8B;
  45              		.loc 1 42 3 is_stmt 1 view .LVU5
  46              		.loc 1 42 26 is_stmt 0 view .LVU6
  47 000e 0023     		movs	r3, #0
  48 0010 8360     		str	r3, [r0, #8]
  43:Core/Src/hw_usart1.c ****   huart1.Init.StopBits = UART_STOPBITS_1;
  49              		.loc 1 43 3 is_stmt 1 view .LVU7
  50              		.loc 1 43 24 is_stmt 0 view .LVU8
  51 0012 C360     		str	r3, [r0, #12]
  44:Core/Src/hw_usart1.c ****   huart1.Init.Parity = UART_PARITY_NONE;
  52              		.loc 1 44 3 is_stmt 1 view .LVU9
  53              		.loc 1 44 22 is_stmt 0 view .LVU10
  54 0014 0361     		str	r3, [r0, #16]
  45:Core/Src/hw_usart1.c ****   huart1.Init.Mode = UART_MODE_TX_RX;
  55              		.loc 1 45 3 is_stmt 1 view .LVU11
  56              		.loc 1 45 20 is_stmt 0 view .LVU12
  57 0016 0C22     		movs	r2, #12
  58 0018 4261     		str	r2, [r0, #20]
  46:Core/Src/hw_usart1.c ****   huart1.Init.HwFlowCtl = UART_HWCONTROL_NONE;
  59              		.loc 1 46 3 is_stmt 1 view .LVU13
  60              		.loc 1 46 25 is_stmt 0 view .LVU14
  61 001a 8361     		str	r3, [r0, #24]
  47:Core/Src/hw_usart1.c ****   huart1.Init.OverSampling = UART_OVERSAMPLING_16;
  62              		.loc 1 47 3 is_stmt 1 view .LVU15
  63              		.loc 1 47 28 is_stmt 0 view .LVU16
  64 001c C361     		str	r3, [r0, #28]
  48:Core/Src/hw_usart1.c ****   if (HAL_UART_Init(&huart1) != HAL_OK)
  65              		.loc 1 48 3 is_stmt 1 view .LVU17
  66              		.loc 1 48 7 is_stmt 0 view .LVU18
  67 001e FFF7FEFF 		bl	HAL_UART_Init
ARM GAS  /tmp/ccMfwHgS.s 			page 3


  68              	.LVL0:
  69              		.loc 1 48 6 view .LVU19
  70 0022 00B9     		cbnz	r0, .L4
  71              	.L1:
  49:Core/Src/hw_usart1.c ****   {
  50:Core/Src/hw_usart1.c ****     Error_Handler();
  51:Core/Src/hw_usart1.c ****   }
  52:Core/Src/hw_usart1.c ****   /* USER CODE BEGIN USART1_Init 2 */
  53:Core/Src/hw_usart1.c **** 
  54:Core/Src/hw_usart1.c ****   /* USER CODE END USART1_Init 2 */
  55:Core/Src/hw_usart1.c **** 
  56:Core/Src/hw_usart1.c **** }...
  72              		.loc 1 56 1 view .LVU20
  73 0024 08BD     		pop	{r3, pc}
  74              	.L4:
  75              	.LBB2:
  50:Core/Src/hw_usart1.c ****     Error_Handler();
  76              		.loc 1 50 5 is_stmt 1 view .LVU21
  77 0026 FFF7FEFF 		bl	Error_Handler
  78              	.LVL1:
  79              	.LBE2:
  80              		.loc 1 56 1 is_stmt 0 view .LVU22
  81 002a FBE7     		b	.L1
  82              	.L6:
  83              		.align	2
  84              	.L5:
  85 002c 00000000 		.word	.LANCHOR0
  86 0030 00380140 		.word	1073821696
  87              		.cfi_endproc
  88              	.LFE65:
  90              		.global	huart1
  91              		.section	.bss.huart1,"aw",%nobits
  92              		.align	2
  93              		.set	.LANCHOR0,. + 0
  96              	huart1:
  97 0000 00000000 		.space	68
  97      00000000 
  97      00000000 
  97      00000000 
  97      00000000 
  98              		.text
  99              	.Letext0:
 100              		.file 2 "/home/callum/.config/Code/User/globalStorage/bmd.stm32-for-vscode/@xpack-dev-tools/arm-no
 101              		.file 3 "/home/callum/.config/Code/User/globalStorage/bmd.stm32-for-vscode/@xpack-dev-tools/arm-no
 102              		.file 4 "Drivers/CMSIS/Device/ST/STM32F1xx/Include/stm32f103xb.h"
 103              		.file 5 "Drivers/STM32F1xx_HAL_Driver/Inc/stm32f1xx_hal_def.h"
 104              		.file 6 "Drivers/STM32F1xx_HAL_Driver/Inc/stm32f1xx_hal_dma.h"
 105              		.file 7 "Drivers/STM32F1xx_HAL_Driver/Inc/stm32f1xx_hal_uart.h"
ARM GAS  /tmp/ccMfwHgS.s 			page 4


DEFINED SYMBOLS
                            *ABS*:0000000000000000 hw_usart1.c
     /tmp/ccMfwHgS.s:18     .text.MX_USART1_UART_Init:0000000000000000 $t
     /tmp/ccMfwHgS.s:24     .text.MX_USART1_UART_Init:0000000000000000 MX_USART1_UART_Init
     /tmp/ccMfwHgS.s:85     .text.MX_USART1_UART_Init:000000000000002c $d
     /tmp/ccMfwHgS.s:96     .bss.huart1:0000000000000000 huart1
     /tmp/ccMfwHgS.s:92     .bss.huart1:0000000000000000 $d

UNDEFINED SYMBOLS
HAL_UART_Init
Error_Handler
