ARM GAS  /tmp/ccudcFbt.s 			page 1


   1              		.cpu cortex-m3
   2              		.arch armv7-m
   3              		.fpu softvfp
   4              		.eabi_attribute 20, 1
   5              		.eabi_attribute 21, 1
   6              		.eabi_attribute 23, 3
   7              		.eabi_attribute 24, 1
   8              		.eabi_attribute 25, 1
   9              		.eabi_attribute 26, 1
  10              		.eabi_attribute 30, 1
  11              		.eabi_attribute 34, 1
  12              		.eabi_attribute 18, 4
  13              		.file	"main.c"
  14              		.text
  15              	.Ltext0:
  16              		.cfi_sections	.debug_frame
  17              		.section	.text.hw_system_clocks_init,"ax",%progbits
  18              		.align	1
  19              		.global	hw_system_clocks_init
  20              		.syntax unified
  21              		.thumb
  22              		.thumb_func
  24              	hw_system_clocks_init:
  25              	.LFB66:
  26              		.file 1 "Core/Src/main.c"
   1:Core/Src/main.c **** /* USER CODE BEGIN Header */
   2:Core/Src/main.c **** /**
   3:Core/Src/main.c ****  ******************************************************************************
   4:Core/Src/main.c ****  * @file           : main.c
   5:Core/Src/main.c ****  * @brief          : Main program body
   6:Core/Src/main.c ****  ******************************************************************************
   7:Core/Src/main.c ****  * @attention
   8:Core/Src/main.c ****  *
   9:Core/Src/main.c ****  * <h2><center>&copy; Copyright (c) 2022 STMicroelectronics.
  10:Core/Src/main.c ****  * All rights reserved.</center></h2>
  11:Core/Src/main.c ****  *
  12:Core/Src/main.c ****  * This software component is licensed by ST under BSD 3-Clause license,
  13:Core/Src/main.c ****  * the "License"; You may not use this file except in compliance with the
  14:Core/Src/main.c ****  * License. You may obtain a copy of the License at:
  15:Core/Src/main.c ****  *                        opensource.org/licenses/BSD-3-Clause
  16:Core/Src/main.c ****  *
  17:Core/Src/main.c ****  ******************************************************************************
  18:Core/Src/main.c ****  */
  19:Core/Src/main.c **** /* USER CODE END Header */
  20:Core/Src/main.c **** /* Includes ------------------------------------------------------------------*/
  21:Core/Src/main.c **** #include "main.h"
  22:Core/Src/main.c **** #include "mgr_bout.h"
  23:Core/Src/main.c **** 
  24:Core/Src/main.c **** /**
  25:Core/Src/main.c ****  * @brief  The application entry point.
  26:Core/Src/main.c ****  * @retval int
  27:Core/Src/main.c ****  */
  28:Core/Src/main.c **** int main(void)
  29:Core/Src/main.c **** {
  30:Core/Src/main.c ****   uint8_t idx;
  31:Core/Src/main.c **** 
  32:Core/Src/main.c ****   /* Configure the system clocks */
ARM GAS  /tmp/ccudcFbt.s 			page 2


  33:Core/Src/main.c ****   hw_system_clocks_init();
  34:Core/Src/main.c **** 
  35:Core/Src/main.c ****   /* Configure and initialise the system tick */
  36:Core/Src/main.c ****   hw_systick_init(1000);
  37:Core/Src/main.c ****   hw_systick_start();
  38:Core/Src/main.c **** 
  39:Core/Src/main.c ****   /* Configure the system heartbeat */
  40:Core/Src/main.c ****   if (EXIT_SUCCESS == heartbeat_init())
  41:Core/Src/main.c ****   {
  42:Core/Src/main.c ****     heartbeat_set_pattern_mode(LED_PULSE);
  43:Core/Src/main.c ****     heartbeat_set_poll_mode(false);
  44:Core/Src/main.c ****     heartbeat_set_period_ms(1000);
  45:Core/Src/main.c ****     heartbeat_start();
  46:Core/Src/main.c ****   }
  47:Core/Src/main.c **** 
  48:Core/Src/main.c ****   bout_init();
  49:Core/Src/main.c **** 
  50:Core/Src/main.c ****   /* Main loop */
  51:Core/Src/main.c ****   while (1)
  52:Core/Src/main.c ****   {   
  53:Core/Src/main.c ****     //heartbeat_poll();
  54:Core/Src/main.c ****     for (idx = 1; idx < 9475; idx++) {
  55:Core/Src/main.c ****       bout_reset_lib();
  56:Core/Src/main.c ****       bout_set(idx);
  57:Core/Src/main.c ****       idx--;
  58:Core/Src/main.c ****       blocking_delay_ms(500);
  59:Core/Src/main.c ****     }
  60:Core/Src/main.c ****   }
  61:Core/Src/main.c **** }
  62:Core/Src/main.c **** 
  63:Core/Src/main.c **** 
  64:Core/Src/main.c **** /**
  65:Core/Src/main.c ****  * @brief System Clock Configuration
  66:Core/Src/main.c ****  * @retval None
  67:Core/Src/main.c ****  */
  68:Core/Src/main.c **** void hw_system_clocks_init(void)
  69:Core/Src/main.c **** {
  27              		.loc 1 69 1 view -0
  28              		.cfi_startproc
  29              		@ args = 0, pretend = 0, frame = 0
  30              		@ frame_needed = 0, uses_anonymous_args = 0
  31 0000 08B5     		push	{r3, lr}
  32              	.LCFI0:
  33              		.cfi_def_cfa_offset 8
  34              		.cfi_offset 3, -8
  35              		.cfi_offset 14, -4
  70:Core/Src/main.c ****   /* Internal 8MHz HSI Configuration:
  71:Core/Src/main.c ****    * ON
  72:Core/Src/main.c ****    * Trim set to default = 16
  73:Core/Src/main.c ****    * Cal at startup default
  74:Core/Src/main.c ****    */
  75:Core/Src/main.c ****   RCC->CR |= RCC_CR_HSION_Pos;
  36              		.loc 1 75 3 view .LVU1
  37              		.loc 1 75 11 is_stmt 0 view .LVU2
  38 0002 374B     		ldr	r3, .L7
  39 0004 1A68     		ldr	r2, [r3]
  40 0006 1A60     		str	r2, [r3]
ARM GAS  /tmp/ccudcFbt.s 			page 3


  76:Core/Src/main.c ****   while (!(RCC->CR & RCC_CR_HSIRDY))
  41              		.loc 1 76 3 is_stmt 1 view .LVU3
  42              	.L2:
  77:Core/Src/main.c ****     ;
  43              		.loc 1 77 5 discriminator 1 view .LVU4
  76:Core/Src/main.c ****   while (!(RCC->CR & RCC_CR_HSIRDY))
  44              		.loc 1 76 9 discriminator 1 view .LVU5
  76:Core/Src/main.c ****   while (!(RCC->CR & RCC_CR_HSIRDY))
  45              		.loc 1 76 15 is_stmt 0 discriminator 1 view .LVU6
  46 0008 354B     		ldr	r3, .L7
  47 000a 1B68     		ldr	r3, [r3]
  76:Core/Src/main.c ****   while (!(RCC->CR & RCC_CR_HSIRDY))
  48              		.loc 1 76 9 discriminator 1 view .LVU7
  49 000c 13F0020F 		tst	r3, #2
  50 0010 FAD0     		beq	.L2
  78:Core/Src/main.c **** 
  79:Core/Src/main.c ****   /* External 8MHz HSE Configuration:
  80:Core/Src/main.c ****    * ON
  81:Core/Src/main.c ****    * Bypass to false
  82:Core/Src/main.c ****    *
  83:Core/Src/main.c ****    */
  84:Core/Src/main.c ****   RCC->CR |= RCC_CR_HSEON;
  51              		.loc 1 84 3 is_stmt 1 view .LVU8
  52              		.loc 1 84 11 is_stmt 0 view .LVU9
  53 0012 334B     		ldr	r3, .L7
  54 0014 1A68     		ldr	r2, [r3]
  55 0016 42F48032 		orr	r2, r2, #65536
  56 001a 1A60     		str	r2, [r3]
  85:Core/Src/main.c ****   RCC->CR &= ~RCC_CR_HSEBYP;
  57              		.loc 1 85 3 is_stmt 1 view .LVU10
  58              		.loc 1 85 11 is_stmt 0 view .LVU11
  59 001c 1A68     		ldr	r2, [r3]
  60 001e 22F48022 		bic	r2, r2, #262144
  61 0022 1A60     		str	r2, [r3]
  86:Core/Src/main.c ****   while (!(RCC->CR & RCC_CR_HSERDY))
  62              		.loc 1 86 3 is_stmt 1 view .LVU12
  63              	.L3:
  87:Core/Src/main.c ****     ;
  64              		.loc 1 87 5 discriminator 1 view .LVU13
  86:Core/Src/main.c ****   while (!(RCC->CR & RCC_CR_HSERDY))
  65              		.loc 1 86 9 discriminator 1 view .LVU14
  86:Core/Src/main.c ****   while (!(RCC->CR & RCC_CR_HSERDY))
  66              		.loc 1 86 15 is_stmt 0 discriminator 1 view .LVU15
  67 0024 2E4B     		ldr	r3, .L7
  68 0026 1B68     		ldr	r3, [r3]
  86:Core/Src/main.c ****   while (!(RCC->CR & RCC_CR_HSERDY))
  69              		.loc 1 86 9 discriminator 1 view .LVU16
  70 0028 13F4003F 		tst	r3, #131072
  71 002c FAD0     		beq	.L3
  88:Core/Src/main.c **** 
  89:Core/Src/main.c ****   /* Flash latency configuration:
  90:Core/Src/main.c ****    * Enable pre-fetch buffer
  91:Core/Src/main.c ****    * Disable Flash half cycle access
  92:Core/Src/main.c ****    * Set wait states (latency) to two, as main clock will be 72MHz
  93:Core/Src/main.c ****    */
  94:Core/Src/main.c ****   FLASH->ACR |= FLASH_ACR_PRFTBE;
  72              		.loc 1 94 3 is_stmt 1 view .LVU17
ARM GAS  /tmp/ccudcFbt.s 			page 4


  73              		.loc 1 94 14 is_stmt 0 view .LVU18
  74 002e 2D4B     		ldr	r3, .L7+4
  75 0030 1A68     		ldr	r2, [r3]
  76 0032 42F01002 		orr	r2, r2, #16
  77 0036 1A60     		str	r2, [r3]
  95:Core/Src/main.c ****   FLASH->ACR &= ~FLASH_ACR_HLFCYA;
  78              		.loc 1 95 3 is_stmt 1 view .LVU19
  79              		.loc 1 95 14 is_stmt 0 view .LVU20
  80 0038 1A68     		ldr	r2, [r3]
  81 003a 22F00802 		bic	r2, r2, #8
  82 003e 1A60     		str	r2, [r3]
  96:Core/Src/main.c ****   FLASH->ACR &= ~FLASH_ACR_LATENCY; // reset
  83              		.loc 1 96 3 is_stmt 1 view .LVU21
  84              		.loc 1 96 14 is_stmt 0 view .LVU22
  85 0040 1A68     		ldr	r2, [r3]
  86 0042 22F00702 		bic	r2, r2, #7
  87 0046 1A60     		str	r2, [r3]
  97:Core/Src/main.c ****   FLASH->ACR |= FLASH_ACR_LATENCY_1;
  88              		.loc 1 97 3 is_stmt 1 view .LVU23
  89              		.loc 1 97 14 is_stmt 0 view .LVU24
  90 0048 1A68     		ldr	r2, [r3]
  91 004a 42F00202 		orr	r2, r2, #2
  92 004e 1A60     		str	r2, [r3]
  98:Core/Src/main.c **** 
  99:Core/Src/main.c ****   /* Clock configuration
 100:Core/Src/main.c ****    * Disable PLL
 101:Core/Src/main.c ****    * Microcontroller clock out disabled!
 102:Core/Src/main.c ****    * USB Prescalar set for 72MHz PLL output
 103:Core/Src/main.c ****    * PLL source is 8MHz HSE clock through PREDIV1=1
 104:Core/Src/main.c ****    * ADC Prescalar set to divide by 8
 105:Core/Src/main.c ****    * APB high speed set to divide by 1 = 72MHz
 106:Core/Src/main.c ****    * APB low speed set to divide by 2 = 36 MHz
 107:Core/Src/main.c ****    * PLL set to 9x from 8MHz HSE to make 72MHz
 108:Core/Src/main.c ****    * Enable PLL
 109:Core/Src/main.c ****    * AHB set to divide by 1 = 72MHz
 110:Core/Src/main.c ****    * PLL as system clock
 111:Core/Src/main.c ****    */
 112:Core/Src/main.c ****   RCC->CR &= ~RCC_CR_PLLON; // clear to allow changes
  93              		.loc 1 112 3 is_stmt 1 view .LVU25
  94              		.loc 1 112 11 is_stmt 0 view .LVU26
  95 0050 A3F58053 		sub	r3, r3, #4096
  96 0054 1A68     		ldr	r2, [r3]
  97 0056 22F08072 		bic	r2, r2, #16777216
  98 005a 1A60     		str	r2, [r3]
 113:Core/Src/main.c ****   RCC->CFGR &= ~RCC_CFGR_MCO;
  99              		.loc 1 113 3 is_stmt 1 view .LVU27
 100              		.loc 1 113 13 is_stmt 0 view .LVU28
 101 005c 5A68     		ldr	r2, [r3, #4]
 102 005e 22F0E062 		bic	r2, r2, #117440512
 103 0062 5A60     		str	r2, [r3, #4]
 114:Core/Src/main.c ****   RCC->CFGR &= ~RCC_CFGR_USBPRE;
 104              		.loc 1 114 3 is_stmt 1 view .LVU29
 105              		.loc 1 114 13 is_stmt 0 view .LVU30
 106 0064 5A68     		ldr	r2, [r3, #4]
 107 0066 22F48002 		bic	r2, r2, #4194304
 108 006a 5A60     		str	r2, [r3, #4]
 115:Core/Src/main.c ****   RCC->CFGR |= RCC_CFGR_PLLSRC;
ARM GAS  /tmp/ccudcFbt.s 			page 5


 109              		.loc 1 115 3 is_stmt 1 view .LVU31
 110              		.loc 1 115 13 is_stmt 0 view .LVU32
 111 006c 5A68     		ldr	r2, [r3, #4]
 112 006e 42F48032 		orr	r2, r2, #65536
 113 0072 5A60     		str	r2, [r3, #4]
 116:Core/Src/main.c ****   RCC->CFGR |= RCC_CFGR_ADCPRE;
 114              		.loc 1 116 3 is_stmt 1 view .LVU33
 115              		.loc 1 116 13 is_stmt 0 view .LVU34
 116 0074 5A68     		ldr	r2, [r3, #4]
 117 0076 42F44042 		orr	r2, r2, #49152
 118 007a 5A60     		str	r2, [r3, #4]
 117:Core/Src/main.c ****   RCC->CFGR &= ~RCC_CFGR_PPRE2;
 119              		.loc 1 117 3 is_stmt 1 view .LVU35
 120              		.loc 1 117 13 is_stmt 0 view .LVU36
 121 007c 5A68     		ldr	r2, [r3, #4]
 122 007e 22F46052 		bic	r2, r2, #14336
 123 0082 5A60     		str	r2, [r3, #4]
 118:Core/Src/main.c ****   RCC->CFGR &= ~RCC_CFGR_PPRE1; // reset
 124              		.loc 1 118 3 is_stmt 1 view .LVU37
 125              		.loc 1 118 13 is_stmt 0 view .LVU38
 126 0084 5A68     		ldr	r2, [r3, #4]
 127 0086 22F4E062 		bic	r2, r2, #1792
 128 008a 5A60     		str	r2, [r3, #4]
 119:Core/Src/main.c ****   RCC->CFGR |= RCC_CFGR_PPRE1_2;
 129              		.loc 1 119 3 is_stmt 1 view .LVU39
 130              		.loc 1 119 13 is_stmt 0 view .LVU40
 131 008c 5A68     		ldr	r2, [r3, #4]
 132 008e 42F48062 		orr	r2, r2, #1024
 133 0092 5A60     		str	r2, [r3, #4]
 120:Core/Src/main.c ****   RCC->CFGR &= ~RCC_CFGR_PLLMULL; // reset
 134              		.loc 1 120 3 is_stmt 1 view .LVU41
 135              		.loc 1 120 13 is_stmt 0 view .LVU42
 136 0094 5A68     		ldr	r2, [r3, #4]
 137 0096 22F47012 		bic	r2, r2, #3932160
 138 009a 5A60     		str	r2, [r3, #4]
 121:Core/Src/main.c ****   RCC->CFGR |= RCC_CFGR_PLLMULL9;
 139              		.loc 1 121 3 is_stmt 1 view .LVU43
 140              		.loc 1 121 13 is_stmt 0 view .LVU44
 141 009c 5A68     		ldr	r2, [r3, #4]
 142 009e 42F4E012 		orr	r2, r2, #1835008
 143 00a2 5A60     		str	r2, [r3, #4]
 122:Core/Src/main.c ****   RCC->CR |= RCC_CR_PLLON;
 144              		.loc 1 122 3 is_stmt 1 view .LVU45
 145              		.loc 1 122 11 is_stmt 0 view .LVU46
 146 00a4 1A68     		ldr	r2, [r3]
 147 00a6 42F08072 		orr	r2, r2, #16777216
 148 00aa 1A60     		str	r2, [r3]
 123:Core/Src/main.c ****   while (!(RCC->CR & RCC_CR_PLLRDY))
 149              		.loc 1 123 3 is_stmt 1 view .LVU47
 150              	.L4:
 124:Core/Src/main.c ****     ;
 151              		.loc 1 124 5 discriminator 1 view .LVU48
 123:Core/Src/main.c ****   while (!(RCC->CR & RCC_CR_PLLRDY))
 152              		.loc 1 123 9 discriminator 1 view .LVU49
 123:Core/Src/main.c ****   while (!(RCC->CR & RCC_CR_PLLRDY))
 153              		.loc 1 123 15 is_stmt 0 discriminator 1 view .LVU50
 154 00ac 0C4B     		ldr	r3, .L7
ARM GAS  /tmp/ccudcFbt.s 			page 6


 155 00ae 1B68     		ldr	r3, [r3]
 123:Core/Src/main.c ****   while (!(RCC->CR & RCC_CR_PLLRDY))
 156              		.loc 1 123 9 discriminator 1 view .LVU51
 157 00b0 13F0007F 		tst	r3, #33554432
 158 00b4 FAD0     		beq	.L4
 125:Core/Src/main.c ****   RCC->CFGR &= ~RCC_CFGR_HPRE;
 159              		.loc 1 125 3 is_stmt 1 view .LVU52
 160              		.loc 1 125 13 is_stmt 0 view .LVU53
 161 00b6 0A4B     		ldr	r3, .L7
 162 00b8 5A68     		ldr	r2, [r3, #4]
 163 00ba 22F0F002 		bic	r2, r2, #240
 164 00be 5A60     		str	r2, [r3, #4]
 126:Core/Src/main.c ****   RCC->CFGR &= ~RCC_CFGR_SW;
 165              		.loc 1 126 3 is_stmt 1 view .LVU54
 166              		.loc 1 126 13 is_stmt 0 view .LVU55
 167 00c0 5A68     		ldr	r2, [r3, #4]
 168 00c2 22F00302 		bic	r2, r2, #3
 169 00c6 5A60     		str	r2, [r3, #4]
 127:Core/Src/main.c ****   RCC->CFGR |= RCC_CFGR_SW_PLL;
 170              		.loc 1 127 3 is_stmt 1 view .LVU56
 171              		.loc 1 127 13 is_stmt 0 view .LVU57
 172 00c8 5A68     		ldr	r2, [r3, #4]
 173 00ca 42F00202 		orr	r2, r2, #2
 174 00ce 5A60     		str	r2, [r3, #4]
 128:Core/Src/main.c ****   while (!(RCC->CFGR & RCC_CFGR_SWS_PLL))
 175              		.loc 1 128 3 is_stmt 1 view .LVU58
 176              	.L5:
 129:Core/Src/main.c ****     ;
 177              		.loc 1 129 5 discriminator 1 view .LVU59
 128:Core/Src/main.c ****   while (!(RCC->CFGR & RCC_CFGR_SWS_PLL))
 178              		.loc 1 128 9 discriminator 1 view .LVU60
 128:Core/Src/main.c ****   while (!(RCC->CFGR & RCC_CFGR_SWS_PLL))
 179              		.loc 1 128 15 is_stmt 0 discriminator 1 view .LVU61
 180 00d0 034B     		ldr	r3, .L7
 181 00d2 5B68     		ldr	r3, [r3, #4]
 128:Core/Src/main.c ****   while (!(RCC->CFGR & RCC_CFGR_SWS_PLL))
 182              		.loc 1 128 9 discriminator 1 view .LVU62
 183 00d4 13F0080F 		tst	r3, #8
 184 00d8 FAD0     		beq	.L5
 130:Core/Src/main.c **** 
 131:Core/Src/main.c ****   /* Inform core libraries of change to clocks
 132:Core/Src/main.c ****    */
 133:Core/Src/main.c ****   SystemCoreClockUpdate();
 185              		.loc 1 133 3 is_stmt 1 view .LVU63
 186 00da FFF7FEFF 		bl	SystemCoreClockUpdate
 187              	.LVL0:
 134:Core/Src/main.c **** }
 188              		.loc 1 134 1 is_stmt 0 view .LVU64
 189 00de 08BD     		pop	{r3, pc}
 190              	.L8:
 191              		.align	2
 192              	.L7:
 193 00e0 00100240 		.word	1073876992
 194 00e4 00200240 		.word	1073881088
 195              		.cfi_endproc
 196              	.LFE66:
 198              		.section	.text.main,"ax",%progbits
ARM GAS  /tmp/ccudcFbt.s 			page 7


 199              		.align	1
 200              		.global	main
 201              		.syntax unified
 202              		.thumb
 203              		.thumb_func
 205              	main:
 206              	.LFB65:
  29:Core/Src/main.c ****   uint8_t idx;
 207              		.loc 1 29 1 is_stmt 1 view -0
 208              		.cfi_startproc
 209              		@ args = 0, pretend = 0, frame = 0
 210              		@ frame_needed = 0, uses_anonymous_args = 0
 211 0000 08B5     		push	{r3, lr}
 212              	.LCFI1:
 213              		.cfi_def_cfa_offset 8
 214              		.cfi_offset 3, -8
 215              		.cfi_offset 14, -4
  30:Core/Src/main.c **** 
 216              		.loc 1 30 3 view .LVU66
  33:Core/Src/main.c **** 
 217              		.loc 1 33 3 view .LVU67
 218 0002 FFF7FEFF 		bl	hw_system_clocks_init
 219              	.LVL1:
  36:Core/Src/main.c ****   hw_systick_start();
 220              		.loc 1 36 3 view .LVU68
 221 0006 4FF47A70 		mov	r0, #1000
 222 000a FFF7FEFF 		bl	hw_systick_init
 223              	.LVL2:
  37:Core/Src/main.c **** 
 224              		.loc 1 37 3 view .LVU69
 225 000e FFF7FEFF 		bl	hw_systick_start
 226              	.LVL3:
  40:Core/Src/main.c ****   {
 227              		.loc 1 40 3 view .LVU70
  40:Core/Src/main.c ****   {
 228              		.loc 1 40 23 is_stmt 0 view .LVU71
 229 0012 FFF7FEFF 		bl	heartbeat_init
 230              	.LVL4:
  40:Core/Src/main.c ****   {
 231              		.loc 1 40 6 view .LVU72
 232 0016 58B1     		cbz	r0, .L13
 233              	.L10:
  48:Core/Src/main.c **** 
 234              		.loc 1 48 3 is_stmt 1 view .LVU73
 235 0018 FFF7FEFF 		bl	bout_init
 236              	.LVL5:
  51:Core/Src/main.c ****   {   
 237              		.loc 1 51 3 view .LVU74
  54:Core/Src/main.c ****       bout_reset_lib();
 238              		.loc 1 54 5 view .LVU75
 239              	.L11:
  55:Core/Src/main.c ****       bout_set(idx);
 240              		.loc 1 55 7 discriminator 2 view .LVU76
 241 001c FFF7FEFF 		bl	bout_reset_lib
 242              	.LVL6:
  56:Core/Src/main.c ****       idx--;
 243              		.loc 1 56 7 discriminator 2 view .LVU77
ARM GAS  /tmp/ccudcFbt.s 			page 8


 244 0020 0120     		movs	r0, #1
 245 0022 FFF7FEFF 		bl	bout_set
 246              	.LVL7:
  57:Core/Src/main.c ****       blocking_delay_ms(500);
 247              		.loc 1 57 7 discriminator 2 view .LVU78
  58:Core/Src/main.c ****     }
 248              		.loc 1 58 7 discriminator 2 view .LVU79
 249 0026 4FF4FA70 		mov	r0, #500
 250 002a FFF7FEFF 		bl	blocking_delay_ms
 251              	.LVL8:
  54:Core/Src/main.c ****       bout_reset_lib();
 252              		.loc 1 54 31 discriminator 2 view .LVU80
  54:Core/Src/main.c ****       bout_reset_lib();
 253              		.loc 1 54 19 discriminator 2 view .LVU81
 254 002e F5E7     		b	.L11
 255              	.LVL9:
 256              	.L13:
  42:Core/Src/main.c ****     heartbeat_set_poll_mode(false);
 257              		.loc 1 42 5 view .LVU82
 258 0030 FFF7FEFF 		bl	heartbeat_set_pattern_mode
 259              	.LVL10:
  43:Core/Src/main.c ****     heartbeat_set_period_ms(1000);
 260              		.loc 1 43 5 view .LVU83
 261 0034 0020     		movs	r0, #0
 262 0036 FFF7FEFF 		bl	heartbeat_set_poll_mode
 263              	.LVL11:
  44:Core/Src/main.c ****     heartbeat_start();
 264              		.loc 1 44 5 view .LVU84
 265 003a 4FF47A70 		mov	r0, #1000
 266 003e FFF7FEFF 		bl	heartbeat_set_period_ms
 267              	.LVL12:
  45:Core/Src/main.c ****   }
 268              		.loc 1 45 5 view .LVU85
 269 0042 FFF7FEFF 		bl	heartbeat_start
 270              	.LVL13:
 271 0046 E7E7     		b	.L10
 272              		.cfi_endproc
 273              	.LFE65:
 275              		.section	.text.Error_Handler,"ax",%progbits
 276              		.align	1
 277              		.global	Error_Handler
 278              		.syntax unified
 279              		.thumb
 280              		.thumb_func
 282              	Error_Handler:
 283              	.LFB67:
 135:Core/Src/main.c **** 
 136:Core/Src/main.c **** /**
 137:Core/Src/main.c ****  * @brief  This function is executed in case of error occurrence.
 138:Core/Src/main.c ****  * @retval None
 139:Core/Src/main.c ****  */
 140:Core/Src/main.c **** void Error_Handler(void)
 141:Core/Src/main.c **** {
 284              		.loc 1 141 1 view -0
 285              		.cfi_startproc
 286              		@ Volatile: function does not return.
 287              		@ args = 0, pretend = 0, frame = 0
ARM GAS  /tmp/ccudcFbt.s 			page 9


 288              		@ frame_needed = 0, uses_anonymous_args = 0
 289              		@ link register save eliminated.
 142:Core/Src/main.c ****   /* USER CODE BEGIN Error_Handler_Debug */
 143:Core/Src/main.c ****   /* User can add his own implementation to report the HAL error return state */
 144:Core/Src/main.c ****   __disable_irq();
 290              		.loc 1 144 3 view .LVU87
 291              	.LBB4:
 292              	.LBI4:
 293              		.file 2 "Drivers/CMSIS/Include/cmsis_gcc.h"
   1:Drivers/CMSIS/Include/cmsis_gcc.h **** /**************************************************************************//**
   2:Drivers/CMSIS/Include/cmsis_gcc.h ****  * @file     cmsis_gcc.h
   3:Drivers/CMSIS/Include/cmsis_gcc.h ****  * @brief    CMSIS compiler GCC header file
   4:Drivers/CMSIS/Include/cmsis_gcc.h ****  * @version  V5.0.4
   5:Drivers/CMSIS/Include/cmsis_gcc.h ****  * @date     09. April 2018
   6:Drivers/CMSIS/Include/cmsis_gcc.h ****  ******************************************************************************/
   7:Drivers/CMSIS/Include/cmsis_gcc.h **** /*
   8:Drivers/CMSIS/Include/cmsis_gcc.h ****  * Copyright (c) 2009-2018 Arm Limited. All rights reserved.
   9:Drivers/CMSIS/Include/cmsis_gcc.h ****  *
  10:Drivers/CMSIS/Include/cmsis_gcc.h ****  * SPDX-License-Identifier: Apache-2.0
  11:Drivers/CMSIS/Include/cmsis_gcc.h ****  *
  12:Drivers/CMSIS/Include/cmsis_gcc.h ****  * Licensed under the Apache License, Version 2.0 (the License); you may
  13:Drivers/CMSIS/Include/cmsis_gcc.h ****  * not use this file except in compliance with the License.
  14:Drivers/CMSIS/Include/cmsis_gcc.h ****  * You may obtain a copy of the License at
  15:Drivers/CMSIS/Include/cmsis_gcc.h ****  *
  16:Drivers/CMSIS/Include/cmsis_gcc.h ****  * www.apache.org/licenses/LICENSE-2.0
  17:Drivers/CMSIS/Include/cmsis_gcc.h ****  *
  18:Drivers/CMSIS/Include/cmsis_gcc.h ****  * Unless required by applicable law or agreed to in writing, software
  19:Drivers/CMSIS/Include/cmsis_gcc.h ****  * distributed under the License is distributed on an AS IS BASIS, WITHOUT
  20:Drivers/CMSIS/Include/cmsis_gcc.h ****  * WARRANTIES OR CONDITIONS OF ANY KIND, either express or implied.
  21:Drivers/CMSIS/Include/cmsis_gcc.h ****  * See the License for the specific language governing permissions and
  22:Drivers/CMSIS/Include/cmsis_gcc.h ****  * limitations under the License.
  23:Drivers/CMSIS/Include/cmsis_gcc.h ****  */
  24:Drivers/CMSIS/Include/cmsis_gcc.h **** 
  25:Drivers/CMSIS/Include/cmsis_gcc.h **** #ifndef __CMSIS_GCC_H
  26:Drivers/CMSIS/Include/cmsis_gcc.h **** #define __CMSIS_GCC_H
  27:Drivers/CMSIS/Include/cmsis_gcc.h **** 
  28:Drivers/CMSIS/Include/cmsis_gcc.h **** /* ignore some GCC warnings */
  29:Drivers/CMSIS/Include/cmsis_gcc.h **** #pragma GCC diagnostic push
  30:Drivers/CMSIS/Include/cmsis_gcc.h **** #pragma GCC diagnostic ignored "-Wsign-conversion"
  31:Drivers/CMSIS/Include/cmsis_gcc.h **** #pragma GCC diagnostic ignored "-Wconversion"
  32:Drivers/CMSIS/Include/cmsis_gcc.h **** #pragma GCC diagnostic ignored "-Wunused-parameter"
  33:Drivers/CMSIS/Include/cmsis_gcc.h **** 
  34:Drivers/CMSIS/Include/cmsis_gcc.h **** /* Fallback for __has_builtin */
  35:Drivers/CMSIS/Include/cmsis_gcc.h **** #ifndef __has_builtin
  36:Drivers/CMSIS/Include/cmsis_gcc.h ****   #define __has_builtin(x) (0)
  37:Drivers/CMSIS/Include/cmsis_gcc.h **** #endif
  38:Drivers/CMSIS/Include/cmsis_gcc.h **** 
  39:Drivers/CMSIS/Include/cmsis_gcc.h **** /* CMSIS compiler specific defines */
  40:Drivers/CMSIS/Include/cmsis_gcc.h **** #ifndef   __ASM
  41:Drivers/CMSIS/Include/cmsis_gcc.h ****   #define __ASM                                  __asm
  42:Drivers/CMSIS/Include/cmsis_gcc.h **** #endif
  43:Drivers/CMSIS/Include/cmsis_gcc.h **** #ifndef   __INLINE
  44:Drivers/CMSIS/Include/cmsis_gcc.h ****   #define __INLINE                               inline
  45:Drivers/CMSIS/Include/cmsis_gcc.h **** #endif
  46:Drivers/CMSIS/Include/cmsis_gcc.h **** #ifndef   __STATIC_INLINE
  47:Drivers/CMSIS/Include/cmsis_gcc.h ****   #define __STATIC_INLINE                        static inline
  48:Drivers/CMSIS/Include/cmsis_gcc.h **** #endif
ARM GAS  /tmp/ccudcFbt.s 			page 10


  49:Drivers/CMSIS/Include/cmsis_gcc.h **** #ifndef   __STATIC_FORCEINLINE                 
  50:Drivers/CMSIS/Include/cmsis_gcc.h ****   #define __STATIC_FORCEINLINE                   __attribute__((always_inline)) static inline
  51:Drivers/CMSIS/Include/cmsis_gcc.h **** #endif                                           
  52:Drivers/CMSIS/Include/cmsis_gcc.h **** #ifndef   __NO_RETURN
  53:Drivers/CMSIS/Include/cmsis_gcc.h ****   #define __NO_RETURN                            __attribute__((__noreturn__))
  54:Drivers/CMSIS/Include/cmsis_gcc.h **** #endif
  55:Drivers/CMSIS/Include/cmsis_gcc.h **** #ifndef   __USED
  56:Drivers/CMSIS/Include/cmsis_gcc.h ****   #define __USED                                 __attribute__((used))
  57:Drivers/CMSIS/Include/cmsis_gcc.h **** #endif
  58:Drivers/CMSIS/Include/cmsis_gcc.h **** #ifndef   __WEAK
  59:Drivers/CMSIS/Include/cmsis_gcc.h ****   #define __WEAK                                 __attribute__((weak))
  60:Drivers/CMSIS/Include/cmsis_gcc.h **** #endif
  61:Drivers/CMSIS/Include/cmsis_gcc.h **** #ifndef   __PACKED
  62:Drivers/CMSIS/Include/cmsis_gcc.h ****   #define __PACKED                               __attribute__((packed, aligned(1)))
  63:Drivers/CMSIS/Include/cmsis_gcc.h **** #endif
  64:Drivers/CMSIS/Include/cmsis_gcc.h **** #ifndef   __PACKED_STRUCT
  65:Drivers/CMSIS/Include/cmsis_gcc.h ****   #define __PACKED_STRUCT                        struct __attribute__((packed, aligned(1)))
  66:Drivers/CMSIS/Include/cmsis_gcc.h **** #endif
  67:Drivers/CMSIS/Include/cmsis_gcc.h **** #ifndef   __PACKED_UNION
  68:Drivers/CMSIS/Include/cmsis_gcc.h ****   #define __PACKED_UNION                         union __attribute__((packed, aligned(1)))
  69:Drivers/CMSIS/Include/cmsis_gcc.h **** #endif
  70:Drivers/CMSIS/Include/cmsis_gcc.h **** #ifndef   __UNALIGNED_UINT32        /* deprecated */
  71:Drivers/CMSIS/Include/cmsis_gcc.h ****   #pragma GCC diagnostic push
  72:Drivers/CMSIS/Include/cmsis_gcc.h ****   #pragma GCC diagnostic ignored "-Wpacked"
  73:Drivers/CMSIS/Include/cmsis_gcc.h ****   #pragma GCC diagnostic ignored "-Wattributes"
  74:Drivers/CMSIS/Include/cmsis_gcc.h ****   struct __attribute__((packed)) T_UINT32 { uint32_t v; };
  75:Drivers/CMSIS/Include/cmsis_gcc.h ****   #pragma GCC diagnostic pop
  76:Drivers/CMSIS/Include/cmsis_gcc.h ****   #define __UNALIGNED_UINT32(x)                  (((struct T_UINT32 *)(x))->v)
  77:Drivers/CMSIS/Include/cmsis_gcc.h **** #endif
  78:Drivers/CMSIS/Include/cmsis_gcc.h **** #ifndef   __UNALIGNED_UINT16_WRITE
  79:Drivers/CMSIS/Include/cmsis_gcc.h ****   #pragma GCC diagnostic push
  80:Drivers/CMSIS/Include/cmsis_gcc.h ****   #pragma GCC diagnostic ignored "-Wpacked"
  81:Drivers/CMSIS/Include/cmsis_gcc.h ****   #pragma GCC diagnostic ignored "-Wattributes"
  82:Drivers/CMSIS/Include/cmsis_gcc.h ****   __PACKED_STRUCT T_UINT16_WRITE { uint16_t v; };
  83:Drivers/CMSIS/Include/cmsis_gcc.h ****   #pragma GCC diagnostic pop
  84:Drivers/CMSIS/Include/cmsis_gcc.h ****   #define __UNALIGNED_UINT16_WRITE(addr, val)    (void)((((struct T_UINT16_WRITE *)(void *)(addr))-
  85:Drivers/CMSIS/Include/cmsis_gcc.h **** #endif
  86:Drivers/CMSIS/Include/cmsis_gcc.h **** #ifndef   __UNALIGNED_UINT16_READ
  87:Drivers/CMSIS/Include/cmsis_gcc.h ****   #pragma GCC diagnostic push
  88:Drivers/CMSIS/Include/cmsis_gcc.h ****   #pragma GCC diagnostic ignored "-Wpacked"
  89:Drivers/CMSIS/Include/cmsis_gcc.h ****   #pragma GCC diagnostic ignored "-Wattributes"
  90:Drivers/CMSIS/Include/cmsis_gcc.h ****   __PACKED_STRUCT T_UINT16_READ { uint16_t v; };
  91:Drivers/CMSIS/Include/cmsis_gcc.h ****   #pragma GCC diagnostic pop
  92:Drivers/CMSIS/Include/cmsis_gcc.h ****   #define __UNALIGNED_UINT16_READ(addr)          (((const struct T_UINT16_READ *)(const void *)(add
  93:Drivers/CMSIS/Include/cmsis_gcc.h **** #endif
  94:Drivers/CMSIS/Include/cmsis_gcc.h **** #ifndef   __UNALIGNED_UINT32_WRITE
  95:Drivers/CMSIS/Include/cmsis_gcc.h ****   #pragma GCC diagnostic push
  96:Drivers/CMSIS/Include/cmsis_gcc.h ****   #pragma GCC diagnostic ignored "-Wpacked"
  97:Drivers/CMSIS/Include/cmsis_gcc.h ****   #pragma GCC diagnostic ignored "-Wattributes"
  98:Drivers/CMSIS/Include/cmsis_gcc.h ****   __PACKED_STRUCT T_UINT32_WRITE { uint32_t v; };
  99:Drivers/CMSIS/Include/cmsis_gcc.h ****   #pragma GCC diagnostic pop
 100:Drivers/CMSIS/Include/cmsis_gcc.h ****   #define __UNALIGNED_UINT32_WRITE(addr, val)    (void)((((struct T_UINT32_WRITE *)(void *)(addr))-
 101:Drivers/CMSIS/Include/cmsis_gcc.h **** #endif
 102:Drivers/CMSIS/Include/cmsis_gcc.h **** #ifndef   __UNALIGNED_UINT32_READ
 103:Drivers/CMSIS/Include/cmsis_gcc.h ****   #pragma GCC diagnostic push
 104:Drivers/CMSIS/Include/cmsis_gcc.h ****   #pragma GCC diagnostic ignored "-Wpacked"
 105:Drivers/CMSIS/Include/cmsis_gcc.h ****   #pragma GCC diagnostic ignored "-Wattributes"
ARM GAS  /tmp/ccudcFbt.s 			page 11


 106:Drivers/CMSIS/Include/cmsis_gcc.h ****   __PACKED_STRUCT T_UINT32_READ { uint32_t v; };
 107:Drivers/CMSIS/Include/cmsis_gcc.h ****   #pragma GCC diagnostic pop
 108:Drivers/CMSIS/Include/cmsis_gcc.h ****   #define __UNALIGNED_UINT32_READ(addr)          (((const struct T_UINT32_READ *)(const void *)(add
 109:Drivers/CMSIS/Include/cmsis_gcc.h **** #endif
 110:Drivers/CMSIS/Include/cmsis_gcc.h **** #ifndef   __ALIGNED
 111:Drivers/CMSIS/Include/cmsis_gcc.h ****   #define __ALIGNED(x)                           __attribute__((aligned(x)))
 112:Drivers/CMSIS/Include/cmsis_gcc.h **** #endif
 113:Drivers/CMSIS/Include/cmsis_gcc.h **** #ifndef   __RESTRICT
 114:Drivers/CMSIS/Include/cmsis_gcc.h ****   #define __RESTRICT                             __restrict
 115:Drivers/CMSIS/Include/cmsis_gcc.h **** #endif
 116:Drivers/CMSIS/Include/cmsis_gcc.h **** 
 117:Drivers/CMSIS/Include/cmsis_gcc.h **** 
 118:Drivers/CMSIS/Include/cmsis_gcc.h **** /* ###########################  Core Function Access  ########################### */
 119:Drivers/CMSIS/Include/cmsis_gcc.h **** /** \ingroup  CMSIS_Core_FunctionInterface
 120:Drivers/CMSIS/Include/cmsis_gcc.h ****     \defgroup CMSIS_Core_RegAccFunctions CMSIS Core Register Access Functions
 121:Drivers/CMSIS/Include/cmsis_gcc.h ****   @{
 122:Drivers/CMSIS/Include/cmsis_gcc.h ****  */
 123:Drivers/CMSIS/Include/cmsis_gcc.h **** 
 124:Drivers/CMSIS/Include/cmsis_gcc.h **** /**
 125:Drivers/CMSIS/Include/cmsis_gcc.h ****   \brief   Enable IRQ Interrupts
 126:Drivers/CMSIS/Include/cmsis_gcc.h ****   \details Enables IRQ interrupts by clearing the I-bit in the CPSR.
 127:Drivers/CMSIS/Include/cmsis_gcc.h ****            Can only be executed in Privileged modes.
 128:Drivers/CMSIS/Include/cmsis_gcc.h ****  */
 129:Drivers/CMSIS/Include/cmsis_gcc.h **** __STATIC_FORCEINLINE void __enable_irq(void)
 130:Drivers/CMSIS/Include/cmsis_gcc.h **** {
 131:Drivers/CMSIS/Include/cmsis_gcc.h ****   __ASM volatile ("cpsie i" : : : "memory");
 132:Drivers/CMSIS/Include/cmsis_gcc.h **** }
 133:Drivers/CMSIS/Include/cmsis_gcc.h **** 
 134:Drivers/CMSIS/Include/cmsis_gcc.h **** 
 135:Drivers/CMSIS/Include/cmsis_gcc.h **** /**
 136:Drivers/CMSIS/Include/cmsis_gcc.h ****   \brief   Disable IRQ Interrupts
 137:Drivers/CMSIS/Include/cmsis_gcc.h ****   \details Disables IRQ interrupts by setting the I-bit in the CPSR.
 138:Drivers/CMSIS/Include/cmsis_gcc.h ****            Can only be executed in Privileged modes.
 139:Drivers/CMSIS/Include/cmsis_gcc.h ****  */
 140:Drivers/CMSIS/Include/cmsis_gcc.h **** __STATIC_FORCEINLINE void __disable_irq(void)
 294              		.loc 2 140 27 view .LVU88
 295              	.LBB5:
 141:Drivers/CMSIS/Include/cmsis_gcc.h **** {
 142:Drivers/CMSIS/Include/cmsis_gcc.h ****   __ASM volatile ("cpsid i" : : : "memory");
 296              		.loc 2 142 3 view .LVU89
 297              		.syntax unified
 298              	@ 142 "Drivers/CMSIS/Include/cmsis_gcc.h" 1
 299 0000 72B6     		cpsid i
 300              	@ 0 "" 2
 301              		.thumb
 302              		.syntax unified
 303              	.L15:
 304              	.LBE5:
 305              	.LBE4:
 145:Core/Src/main.c ****   while (1)
 306              		.loc 1 145 3 discriminator 1 view .LVU90
 146:Core/Src/main.c ****   {
 147:Core/Src/main.c ****   }
 307              		.loc 1 147 3 discriminator 1 view .LVU91
 145:Core/Src/main.c ****   while (1)
 308              		.loc 1 145 9 discriminator 1 view .LVU92
 309 0002 FEE7     		b	.L15
ARM GAS  /tmp/ccudcFbt.s 			page 12


 310              		.cfi_endproc
 311              	.LFE67:
 313              		.text
 314              	.Letext0:
 315              		.file 3 "/home/callum/.config/Code/User/globalStorage/bmd.stm32-for-vscode/@xpack-dev-tools/arm-no
 316              		.file 4 "/home/callum/.config/Code/User/globalStorage/bmd.stm32-for-vscode/@xpack-dev-tools/arm-no
 317              		.file 5 "Drivers/CMSIS/Device/ST/STM32F1xx/Include/stm32f103xb.h"
 318              		.file 6 "Drivers/CMSIS/Device/ST/STM32F1xx/Include/system_stm32f1xx.h"
 319              		.file 7 "Core/Inc/hw_systick.h"
 320              		.file 8 "Core/Inc/mgr_heartbeat.h"
 321              		.file 9 "Core/Inc/mgr_bout.h"
ARM GAS  /tmp/ccudcFbt.s 			page 13

