ARM GAS  /tmp/ccrjupSi.s 			page 1


   1              		.cpu cortex-m3
   2              		.arch armv7-m
   3              		.fpu softvfp
   4              		.eabi_attribute 20, 1
   5              		.eabi_attribute 21, 1
   6              		.eabi_attribute 23, 3
   7              		.eabi_attribute 24, 1
   8              		.eabi_attribute 25, 1
   9              		.eabi_attribute 26, 1
  10              		.eabi_attribute 30, 1
  11              		.eabi_attribute 34, 1
  12              		.eabi_attribute 18, 4
  13              		.file	"mgr_bout.c"
  14              		.text
  15              	.Ltext0:
  16              		.cfi_sections	.debug_frame
  17              		.section	.text.bout_tick_callback,"ax",%progbits
  18              		.align	1
  19              		.global	bout_tick_callback
  20              		.syntax unified
  21              		.thumb
  22              		.thumb_func
  24              	bout_tick_callback:
  25              	.LFB72:
  26              		.file 1 "Core/Src/mgr_bout.c"
   1:Core/Src/mgr_bout.c **** /**
   2:Core/Src/mgr_bout.c ****  * @file mgr_heartbeat.h
   3:Core/Src/mgr_bout.c ****  * @author your name (you@domain.com)
   4:Core/Src/mgr_bout.c ****  * @brief manager for the hearbeat LED. Assumed active high LED
   5:Core/Src/mgr_bout.c ****  * @version 0.1
   6:Core/Src/mgr_bout.c ****  * @date 2022-05-05
   7:Core/Src/mgr_bout.c ****  *
   8:Core/Src/mgr_bout.c ****  * @copyright Copyright (c) 2022
   9:Core/Src/mgr_bout.c ****  *
  10:Core/Src/mgr_bout.c ****  */
  11:Core/Src/mgr_bout.c **** 
  12:Core/Src/mgr_bout.c **** #include "mgr_bout.h"
  13:Core/Src/mgr_bout.c **** 
  14:Core/Src/mgr_bout.c **** /* Files required variables */
  15:Core/Src/mgr_bout.c **** 
  16:Core/Src/mgr_bout.c **** static const char bout_gpio_ports[BOUT_CNT] = {PORT_BOUT_0,PORT_BOUT_1,PORT_BOUT_2,PORT_BOUT_3,PORT
  17:Core/Src/mgr_bout.c **** 
  18:Core/Src/mgr_bout.c **** static const uint8_t bout_gpio_pins[BOUT_CNT] = {PIN_BOUT_0,PIN_BOUT_1,PIN_BOUT_2,PIN_BOUT_3,PIN_BO
  19:Core/Src/mgr_bout.c **** 
  20:Core/Src/mgr_bout.c **** static stmgpio_t bout_gpio[BOUT_CNT];
  21:Core/Src/mgr_bout.c **** 
  22:Core/Src/mgr_bout.c **** volatile static uint8_t callback_cnt;
  23:Core/Src/mgr_bout.c **** 
  24:Core/Src/mgr_bout.c **** volatile static bool bouts_is_active;
  25:Core/Src/mgr_bout.c **** 
  26:Core/Src/mgr_bout.c **** int bout_init(void)
  27:Core/Src/mgr_bout.c **** {
  28:Core/Src/mgr_bout.c ****     uint8_t idx;
  29:Core/Src/mgr_bout.c **** 
  30:Core/Src/mgr_bout.c ****     /* set up each of the gpio */
  31:Core/Src/mgr_bout.c ****     for (idx = 0; idx < BOUT_CNT; idx++) {
  32:Core/Src/mgr_bout.c ****         bout_gpio[idx].port = bout_gpio_ports[idx];
ARM GAS  /tmp/ccrjupSi.s 			page 2


  33:Core/Src/mgr_bout.c ****         bout_gpio[idx].pin = bout_gpio_pins[idx];
  34:Core/Src/mgr_bout.c ****         bout_gpio[idx].cfg = OUT_PUSHPULL;
  35:Core/Src/mgr_bout.c ****         bout_gpio[idx].dir = OUTPUT_2MHZ;
  36:Core/Src/mgr_bout.c ****         ASSERT_INT(stmgpio_setup(&bout_gpio[idx]));
  37:Core/Src/mgr_bout.c ****     }
  38:Core/Src/mgr_bout.c **** 
  39:Core/Src/mgr_bout.c ****     /* Setup callback for system tick */
  40:Core/Src/mgr_bout.c ****     hw_systick_add_callback(bout_tick_callback);
  41:Core/Src/mgr_bout.c **** 
  42:Core/Src/mgr_bout.c ****     /* Defaults */
  43:Core/Src/mgr_bout.c ****     bout_reset_lib();
  44:Core/Src/mgr_bout.c **** 
  45:Core/Src/mgr_bout.c ****     return EXIT_SUCCESS;
  46:Core/Src/mgr_bout.c **** }
  47:Core/Src/mgr_bout.c **** 
  48:Core/Src/mgr_bout.c **** void bout_reset_lib(void)
  49:Core/Src/mgr_bout.c **** {
  50:Core/Src/mgr_bout.c ****     uint8_t idx;
  51:Core/Src/mgr_bout.c ****     /* Set all pins to low by default */
  52:Core/Src/mgr_bout.c ****     for (idx = 0; idx < BOUT_CNT; idx++) {
  53:Core/Src/mgr_bout.c ****         stmgpio_write(&bout_gpio[idx], PIN_LOW);
  54:Core/Src/mgr_bout.c ****     }
  55:Core/Src/mgr_bout.c **** }
  56:Core/Src/mgr_bout.c **** 
  57:Core/Src/mgr_bout.c **** void bout_reset(uint8_t bout_num)
  58:Core/Src/mgr_bout.c **** {
  59:Core/Src/mgr_bout.c ****     /* write if its a relevant number */
  60:Core/Src/mgr_bout.c ****     if (BOUT_CNT > bout_num) {
  61:Core/Src/mgr_bout.c ****         stmgpio_write(&bout_gpio[bout_num], PIN_LOW);
  62:Core/Src/mgr_bout.c ****     }
  63:Core/Src/mgr_bout.c **** }
  64:Core/Src/mgr_bout.c **** 
  65:Core/Src/mgr_bout.c **** void bout_set(uint8_t bout_num)
  66:Core/Src/mgr_bout.c **** {
  67:Core/Src/mgr_bout.c ****     /* write if its a relevant number */
  68:Core/Src/mgr_bout.c ****     if (BOUT_CNT > bout_num) {
  69:Core/Src/mgr_bout.c ****         stmgpio_write(&bout_gpio[bout_num], PIN_HIGH);
  70:Core/Src/mgr_bout.c ****     }
  71:Core/Src/mgr_bout.c **** }
  72:Core/Src/mgr_bout.c **** 
  73:Core/Src/mgr_bout.c **** void bout_stop(void)
  74:Core/Src/mgr_bout.c **** {
  75:Core/Src/mgr_bout.c ****     bouts_is_active = false;
  76:Core/Src/mgr_bout.c **** }
  77:Core/Src/mgr_bout.c **** 
  78:Core/Src/mgr_bout.c **** void bout_start(void)
  79:Core/Src/mgr_bout.c **** {
  80:Core/Src/mgr_bout.c ****     bouts_is_active = true;
  81:Core/Src/mgr_bout.c **** }
  82:Core/Src/mgr_bout.c **** 
  83:Core/Src/mgr_bout.c **** void bout_poll(void)
  84:Core/Src/mgr_bout.c **** {
  85:Core/Src/mgr_bout.c ****     /*  */
  86:Core/Src/mgr_bout.c ****     while (callback_cnt > 0) {
  87:Core/Src/mgr_bout.c ****         callback_cnt--;
  88:Core/Src/mgr_bout.c ****     }
  89:Core/Src/mgr_bout.c **** }
ARM GAS  /tmp/ccrjupSi.s 			page 3


  90:Core/Src/mgr_bout.c **** 
  91:Core/Src/mgr_bout.c **** void bout_tick_callback(void)
  92:Core/Src/mgr_bout.c **** {
  27              		.loc 1 92 1 view -0
  28              		.cfi_startproc
  29              		@ args = 0, pretend = 0, frame = 0
  30              		@ frame_needed = 0, uses_anonymous_args = 0
  31              		@ link register save eliminated.
  93:Core/Src/mgr_bout.c ****     if (bouts_is_active)
  32              		.loc 1 93 5 view .LVU1
  33              		.loc 1 93 9 is_stmt 0 view .LVU2
  34 0000 044B     		ldr	r3, .L3
  35 0002 1B78     		ldrb	r3, [r3]	@ zero_extendqisi2
  36              		.loc 1 93 8 view .LVU3
  37 0004 23B1     		cbz	r3, .L1
  94:Core/Src/mgr_bout.c ****     {
  95:Core/Src/mgr_bout.c ****         callback_cnt++;
  38              		.loc 1 95 9 is_stmt 1 view .LVU4
  39              		.loc 1 95 21 is_stmt 0 view .LVU5
  40 0006 044A     		ldr	r2, .L3+4
  41 0008 1378     		ldrb	r3, [r2]	@ zero_extendqisi2
  42 000a 0133     		adds	r3, r3, #1
  43 000c DBB2     		uxtb	r3, r3
  44 000e 1370     		strb	r3, [r2]
  45              	.L1:
  96:Core/Src/mgr_bout.c ****     }
  97:Core/Src/mgr_bout.c **** }...
  46              		.loc 1 97 1 view .LVU6
  47 0010 7047     		bx	lr
  48              	.L4:
  49 0012 00BF     		.align	2
  50              	.L3:
  51 0014 00000000 		.word	.LANCHOR0
  52 0018 00000000 		.word	.LANCHOR1
  53              		.cfi_endproc
  54              	.LFE72:
  56              		.section	.text.bout_reset_lib,"ax",%progbits
  57              		.align	1
  58              		.global	bout_reset_lib
  59              		.syntax unified
  60              		.thumb
  61              		.thumb_func
  63              	bout_reset_lib:
  64              	.LFB66:
  49:Core/Src/mgr_bout.c **** {
  65              		.loc 1 49 1 is_stmt 1 view -0
  66              		.cfi_startproc
  67              		@ args = 0, pretend = 0, frame = 0
  68              		@ frame_needed = 0, uses_anonymous_args = 0
  69 0000 10B5     		push	{r4, lr}
  70              		.cfi_def_cfa_offset 8
  71              		.cfi_offset 4, -8
  72              		.cfi_offset 14, -4
  50:Core/Src/mgr_bout.c ****     uint8_t idx;
  73              		.loc 1 50 5 view .LVU8
  52:Core/Src/mgr_bout.c ****     for (idx = 0; idx < BOUT_CNT; idx++) {
  74              		.loc 1 52 5 view .LVU9
ARM GAS  /tmp/ccrjupSi.s 			page 4


  75              	.LVL0:
  52:Core/Src/mgr_bout.c ****     for (idx = 0; idx < BOUT_CNT; idx++) {
  76              		.loc 1 52 14 is_stmt 0 view .LVU10
  77 0002 0024     		movs	r4, #0
  52:Core/Src/mgr_bout.c ****     for (idx = 0; idx < BOUT_CNT; idx++) {
  78              		.loc 1 52 5 view .LVU11
  79 0004 09E0     		b	.L6
  80              	.LVL1:
  81              	.L7:
  53:Core/Src/mgr_bout.c ****         stmgpio_write(&bout_gpio[idx], PIN_LOW);
  82              		.loc 1 53 9 is_stmt 1 discriminator 3 view .LVU12
  83 0006 04EB4402 		add	r2, r4, r4, lsl #1
  84 000a 9300     		lsls	r3, r2, #2
  85 000c 0121     		movs	r1, #1
  86 000e 0448     		ldr	r0, .L9
  87 0010 1844     		add	r0, r0, r3
  88 0012 FFF7FEFF 		bl	stmgpio_write
  89              	.LVL2:
  52:Core/Src/mgr_bout.c ****     for (idx = 0; idx < BOUT_CNT; idx++) {
  90              		.loc 1 52 35 discriminator 3 view .LVU13
  52:Core/Src/mgr_bout.c ****     for (idx = 0; idx < BOUT_CNT; idx++) {
  91              		.loc 1 52 38 is_stmt 0 discriminator 3 view .LVU14
  92 0016 0134     		adds	r4, r4, #1
  93              	.LVL3:
  52:Core/Src/mgr_bout.c ****     for (idx = 0; idx < BOUT_CNT; idx++) {
  94              		.loc 1 52 38 discriminator 3 view .LVU15
  95 0018 E4B2     		uxtb	r4, r4
  96              	.LVL4:
  97              	.L6:
  52:Core/Src/mgr_bout.c ****     for (idx = 0; idx < BOUT_CNT; idx++) {
  98              		.loc 1 52 19 is_stmt 1 discriminator 1 view .LVU16
  52:Core/Src/mgr_bout.c ****     for (idx = 0; idx < BOUT_CNT; idx++) {
  99              		.loc 1 52 5 is_stmt 0 discriminator 1 view .LVU17
 100 001a 072C     		cmp	r4, #7
 101 001c F3D9     		bls	.L7
  55:Core/Src/mgr_bout.c **** }
 102              		.loc 1 55 1 view .LVU18
 103 001e 10BD     		pop	{r4, pc}
 104              	.LVL5:
 105              	.L10:
  55:Core/Src/mgr_bout.c **** }
 106              		.loc 1 55 1 view .LVU19
 107              		.align	2
 108              	.L9:
 109 0020 00000000 		.word	.LANCHOR2
 110              		.cfi_endproc
 111              	.LFE66:
 113              		.section	.text.bout_init,"ax",%progbits
 114              		.align	1
 115              		.global	bout_init
 116              		.syntax unified
 117              		.thumb
 118              		.thumb_func
 120              	bout_init:
 121              	.LFB65:
  27:Core/Src/mgr_bout.c **** {
 122              		.loc 1 27 1 is_stmt 1 view -0
ARM GAS  /tmp/ccrjupSi.s 			page 5


 123              		.cfi_startproc
 124              		@ args = 0, pretend = 0, frame = 0
 125              		@ frame_needed = 0, uses_anonymous_args = 0
 126 0000 10B5     		push	{r4, lr}
 127              		.cfi_def_cfa_offset 8
 128              		.cfi_offset 4, -8
 129              		.cfi_offset 14, -4
  28:Core/Src/mgr_bout.c ****     uint8_t idx;
 130              		.loc 1 28 5 view .LVU21
  31:Core/Src/mgr_bout.c ****     for (idx = 0; idx < BOUT_CNT; idx++) {
 131              		.loc 1 31 5 view .LVU22
 132              	.LVL6:
  31:Core/Src/mgr_bout.c ****     for (idx = 0; idx < BOUT_CNT; idx++) {
 133              		.loc 1 31 14 is_stmt 0 view .LVU23
 134 0002 0024     		movs	r4, #0
 135              	.LVL7:
 136              	.L12:
  31:Core/Src/mgr_bout.c ****     for (idx = 0; idx < BOUT_CNT; idx++) {
 137              		.loc 1 31 19 is_stmt 1 discriminator 1 view .LVU24
  31:Core/Src/mgr_bout.c ****     for (idx = 0; idx < BOUT_CNT; idx++) {
 138              		.loc 1 31 5 is_stmt 0 discriminator 1 view .LVU25
 139 0004 072C     		cmp	r4, #7
 140 0006 15D8     		bhi	.L17
  32:Core/Src/mgr_bout.c ****         bout_gpio[idx].port = bout_gpio_ports[idx];
 141              		.loc 1 32 9 is_stmt 1 view .LVU26
  32:Core/Src/mgr_bout.c ****         bout_gpio[idx].port = bout_gpio_ports[idx];
 142              		.loc 1 32 46 is_stmt 0 view .LVU27
 143 0008 0F4B     		ldr	r3, .L18
 144 000a 195D     		ldrb	r1, [r3, r4]	@ zero_extendqisi2
  32:Core/Src/mgr_bout.c ****         bout_gpio[idx].port = bout_gpio_ports[idx];
 145              		.loc 1 32 29 view .LVU28
 146 000c 0F4A     		ldr	r2, .L18+4
 147 000e 04EB4403 		add	r3, r4, r4, lsl #1
 148 0012 02EB8303 		add	r3, r2, r3, lsl #2
 149 0016 1971     		strb	r1, [r3, #4]
  33:Core/Src/mgr_bout.c ****         bout_gpio[idx].pin = bout_gpio_pins[idx];
 150              		.loc 1 33 9 is_stmt 1 view .LVU29
  33:Core/Src/mgr_bout.c ****         bout_gpio[idx].pin = bout_gpio_pins[idx];
 151              		.loc 1 33 44 is_stmt 0 view .LVU30
 152 0018 0D49     		ldr	r1, .L18+8
 153 001a 095D     		ldrb	r1, [r1, r4]	@ zero_extendqisi2
  33:Core/Src/mgr_bout.c ****         bout_gpio[idx].pin = bout_gpio_pins[idx];
 154              		.loc 1 33 28 view .LVU31
 155 001c 5971     		strb	r1, [r3, #5]
  34:Core/Src/mgr_bout.c ****         bout_gpio[idx].cfg = OUT_PUSHPULL;
 156              		.loc 1 34 9 is_stmt 1 view .LVU32
  34:Core/Src/mgr_bout.c ****         bout_gpio[idx].cfg = OUT_PUSHPULL;
 157              		.loc 1 34 28 is_stmt 0 view .LVU33
 158 001e 0421     		movs	r1, #4
 159 0020 D970     		strb	r1, [r3, #3]
  35:Core/Src/mgr_bout.c ****         bout_gpio[idx].dir = OUTPUT_2MHZ;
 160              		.loc 1 35 9 is_stmt 1 view .LVU34
  35:Core/Src/mgr_bout.c ****         bout_gpio[idx].dir = OUTPUT_2MHZ;
 161              		.loc 1 35 28 is_stmt 0 view .LVU35
 162 0022 0221     		movs	r1, #2
 163 0024 5970     		strb	r1, [r3, #1]
  36:Core/Src/mgr_bout.c ****         ASSERT_INT(stmgpio_setup(&bout_gpio[idx]));
ARM GAS  /tmp/ccrjupSi.s 			page 6


 164              		.loc 1 36 9 is_stmt 1 view .LVU36
 165 0026 1846     		mov	r0, r3
 166 0028 FFF7FEFF 		bl	stmgpio_setup
 167              	.LVL8:
 168 002c 48B9     		cbnz	r0, .L15
  31:Core/Src/mgr_bout.c ****     for (idx = 0; idx < BOUT_CNT; idx++) {
 169              		.loc 1 31 35 discriminator 2 view .LVU37
  31:Core/Src/mgr_bout.c ****     for (idx = 0; idx < BOUT_CNT; idx++) {
 170              		.loc 1 31 38 is_stmt 0 discriminator 2 view .LVU38
 171 002e 0134     		adds	r4, r4, #1
 172              	.LVL9:
  31:Core/Src/mgr_bout.c ****     for (idx = 0; idx < BOUT_CNT; idx++) {
 173              		.loc 1 31 38 discriminator 2 view .LVU39
 174 0030 E4B2     		uxtb	r4, r4
 175              	.LVL10:
  31:Core/Src/mgr_bout.c ****     for (idx = 0; idx < BOUT_CNT; idx++) {
 176              		.loc 1 31 38 discriminator 2 view .LVU40
 177 0032 E7E7     		b	.L12
 178              	.L17:
  40:Core/Src/mgr_bout.c ****     hw_systick_add_callback(bout_tick_callback);
 179              		.loc 1 40 5 is_stmt 1 view .LVU41
 180 0034 0748     		ldr	r0, .L18+12
 181 0036 FFF7FEFF 		bl	hw_systick_add_callback
 182              	.LVL11:
  43:Core/Src/mgr_bout.c ****     bout_reset_lib();
 183              		.loc 1 43 5 view .LVU42
 184 003a FFF7FEFF 		bl	bout_reset_lib
 185              	.LVL12:
  45:Core/Src/mgr_bout.c ****     return EXIT_SUCCESS;
 186              		.loc 1 45 5 view .LVU43
  45:Core/Src/mgr_bout.c ****     return EXIT_SUCCESS;
 187              		.loc 1 45 12 is_stmt 0 view .LVU44
 188 003e 0020     		movs	r0, #0
 189              	.L11:
  46:Core/Src/mgr_bout.c **** }
 190              		.loc 1 46 1 view .LVU45
 191 0040 10BD     		pop	{r4, pc}
 192              	.LVL13:
 193              	.L15:
  36:Core/Src/mgr_bout.c ****         ASSERT_INT(stmgpio_setup(&bout_gpio[idx]));
 194              		.loc 1 36 9 view .LVU46
 195 0042 0120     		movs	r0, #1
 196 0044 FCE7     		b	.L11
 197              	.L19:
 198 0046 00BF     		.align	2
 199              	.L18:
 200 0048 00000000 		.word	.LANCHOR3
 201 004c 00000000 		.word	.LANCHOR2
 202 0050 00000000 		.word	.LANCHOR4
 203 0054 00000000 		.word	bout_tick_callback
 204              		.cfi_endproc
 205              	.LFE65:
 207              		.section	.text.bout_reset,"ax",%progbits
 208              		.align	1
 209              		.global	bout_reset
 210              		.syntax unified
 211              		.thumb
ARM GAS  /tmp/ccrjupSi.s 			page 7


 212              		.thumb_func
 214              	bout_reset:
 215              	.LVL14:
 216              	.LFB67:
  58:Core/Src/mgr_bout.c **** {
 217              		.loc 1 58 1 is_stmt 1 view -0
 218              		.cfi_startproc
 219              		@ args = 0, pretend = 0, frame = 0
 220              		@ frame_needed = 0, uses_anonymous_args = 0
  60:Core/Src/mgr_bout.c ****     if (BOUT_CNT > bout_num) {
 221              		.loc 1 60 5 view .LVU48
  60:Core/Src/mgr_bout.c ****     if (BOUT_CNT > bout_num) {
 222              		.loc 1 60 8 is_stmt 0 view .LVU49
 223 0000 0728     		cmp	r0, #7
 224 0002 00D9     		bls	.L26
 225 0004 7047     		bx	lr
 226              	.L26:
  58:Core/Src/mgr_bout.c **** {
 227              		.loc 1 58 1 view .LVU50
 228 0006 08B5     		push	{r3, lr}
 229              		.cfi_def_cfa_offset 8
 230              		.cfi_offset 3, -8
 231              		.cfi_offset 14, -4
  61:Core/Src/mgr_bout.c ****         stmgpio_write(&bout_gpio[bout_num], PIN_LOW);
 232              		.loc 1 61 9 is_stmt 1 view .LVU51
 233 0008 00EB4000 		add	r0, r0, r0, lsl #1
 234              	.LVL15:
  61:Core/Src/mgr_bout.c ****         stmgpio_write(&bout_gpio[bout_num], PIN_LOW);
 235              		.loc 1 61 9 is_stmt 0 view .LVU52
 236 000c 0121     		movs	r1, #1
 237 000e 034B     		ldr	r3, .L27
 238 0010 03EB8000 		add	r0, r3, r0, lsl #2
 239 0014 FFF7FEFF 		bl	stmgpio_write
 240              	.LVL16:
  63:Core/Src/mgr_bout.c **** }
 241              		.loc 1 63 1 view .LVU53
 242 0018 08BD     		pop	{r3, pc}
 243              	.L28:
 244 001a 00BF     		.align	2
 245              	.L27:
 246 001c 00000000 		.word	.LANCHOR2
 247              		.cfi_endproc
 248              	.LFE67:
 250              		.section	.text.bout_set,"ax",%progbits
 251              		.align	1
 252              		.global	bout_set
 253              		.syntax unified
 254              		.thumb
 255              		.thumb_func
 257              	bout_set:
 258              	.LVL17:
 259              	.LFB68:
  66:Core/Src/mgr_bout.c **** {
 260              		.loc 1 66 1 is_stmt 1 view -0
 261              		.cfi_startproc
 262              		@ args = 0, pretend = 0, frame = 0
 263              		@ frame_needed = 0, uses_anonymous_args = 0
ARM GAS  /tmp/ccrjupSi.s 			page 8


  68:Core/Src/mgr_bout.c ****     if (BOUT_CNT > bout_num) {
 264              		.loc 1 68 5 view .LVU55
  68:Core/Src/mgr_bout.c ****     if (BOUT_CNT > bout_num) {
 265              		.loc 1 68 8 is_stmt 0 view .LVU56
 266 0000 0728     		cmp	r0, #7
 267 0002 00D9     		bls	.L35
 268 0004 7047     		bx	lr
 269              	.L35:
  66:Core/Src/mgr_bout.c **** {
 270              		.loc 1 66 1 view .LVU57
 271 0006 08B5     		push	{r3, lr}
 272              		.cfi_def_cfa_offset 8
 273              		.cfi_offset 3, -8
 274              		.cfi_offset 14, -4
  69:Core/Src/mgr_bout.c ****         stmgpio_write(&bout_gpio[bout_num], PIN_HIGH);
 275              		.loc 1 69 9 is_stmt 1 view .LVU58
 276 0008 00EB4000 		add	r0, r0, r0, lsl #1
 277              	.LVL18:
  69:Core/Src/mgr_bout.c ****         stmgpio_write(&bout_gpio[bout_num], PIN_HIGH);
 278              		.loc 1 69 9 is_stmt 0 view .LVU59
 279 000c 0021     		movs	r1, #0
 280 000e 034B     		ldr	r3, .L36
 281 0010 03EB8000 		add	r0, r3, r0, lsl #2
 282 0014 FFF7FEFF 		bl	stmgpio_write
 283              	.LVL19:
  71:Core/Src/mgr_bout.c **** }
 284              		.loc 1 71 1 view .LVU60
 285 0018 08BD     		pop	{r3, pc}
 286              	.L37:
 287 001a 00BF     		.align	2
 288              	.L36:
 289 001c 00000000 		.word	.LANCHOR2
 290              		.cfi_endproc
 291              	.LFE68:
 293              		.section	.text.bout_stop,"ax",%progbits
 294              		.align	1
 295              		.global	bout_stop
 296              		.syntax unified
 297              		.thumb
 298              		.thumb_func
 300              	bout_stop:
 301              	.LFB69:
  74:Core/Src/mgr_bout.c **** {
 302              		.loc 1 74 1 is_stmt 1 view -0
 303              		.cfi_startproc
 304              		@ args = 0, pretend = 0, frame = 0
 305              		@ frame_needed = 0, uses_anonymous_args = 0
 306              		@ link register save eliminated.
  75:Core/Src/mgr_bout.c ****     bouts_is_active = false;
 307              		.loc 1 75 5 view .LVU62
  75:Core/Src/mgr_bout.c ****     bouts_is_active = false;
 308              		.loc 1 75 21 is_stmt 0 view .LVU63
 309 0000 014B     		ldr	r3, .L39
 310 0002 0022     		movs	r2, #0
 311 0004 1A70     		strb	r2, [r3]
  76:Core/Src/mgr_bout.c **** }
 312              		.loc 1 76 1 view .LVU64
ARM GAS  /tmp/ccrjupSi.s 			page 9


 313 0006 7047     		bx	lr
 314              	.L40:
 315              		.align	2
 316              	.L39:
 317 0008 00000000 		.word	.LANCHOR0
 318              		.cfi_endproc
 319              	.LFE69:
 321              		.section	.text.bout_start,"ax",%progbits
 322              		.align	1
 323              		.global	bout_start
 324              		.syntax unified
 325              		.thumb
 326              		.thumb_func
 328              	bout_start:
 329              	.LFB70:
  79:Core/Src/mgr_bout.c **** {
 330              		.loc 1 79 1 is_stmt 1 view -0
 331              		.cfi_startproc
 332              		@ args = 0, pretend = 0, frame = 0
 333              		@ frame_needed = 0, uses_anonymous_args = 0
 334              		@ link register save eliminated.
  80:Core/Src/mgr_bout.c ****     bouts_is_active = true;
 335              		.loc 1 80 5 view .LVU66
  80:Core/Src/mgr_bout.c ****     bouts_is_active = true;
 336              		.loc 1 80 21 is_stmt 0 view .LVU67
 337 0000 014B     		ldr	r3, .L42
 338 0002 0122     		movs	r2, #1
 339 0004 1A70     		strb	r2, [r3]
  81:Core/Src/mgr_bout.c **** }
 340              		.loc 1 81 1 view .LVU68
 341 0006 7047     		bx	lr
 342              	.L43:
 343              		.align	2
 344              	.L42:
 345 0008 00000000 		.word	.LANCHOR0
 346              		.cfi_endproc
 347              	.LFE70:
 349              		.section	.text.bout_poll,"ax",%progbits
 350              		.align	1
 351              		.global	bout_poll
 352              		.syntax unified
 353              		.thumb
 354              		.thumb_func
 356              	bout_poll:
 357              	.LFB71:
  84:Core/Src/mgr_bout.c **** {
 358              		.loc 1 84 1 is_stmt 1 view -0
 359              		.cfi_startproc
 360              		@ args = 0, pretend = 0, frame = 0
 361              		@ frame_needed = 0, uses_anonymous_args = 0
 362              		@ link register save eliminated.
  86:Core/Src/mgr_bout.c ****     while (callback_cnt > 0) {
 363              		.loc 1 86 5 view .LVU70
  86:Core/Src/mgr_bout.c ****     while (callback_cnt > 0) {
 364              		.loc 1 86 11 is_stmt 0 view .LVU71
 365 0000 04E0     		b	.L45
 366              	.L46:
ARM GAS  /tmp/ccrjupSi.s 			page 10


  87:Core/Src/mgr_bout.c ****         callback_cnt--;
 367              		.loc 1 87 9 is_stmt 1 view .LVU72
  87:Core/Src/mgr_bout.c ****         callback_cnt--;
 368              		.loc 1 87 21 is_stmt 0 view .LVU73
 369 0002 054A     		ldr	r2, .L47
 370 0004 1378     		ldrb	r3, [r2]	@ zero_extendqisi2
 371 0006 013B     		subs	r3, r3, #1
 372 0008 DBB2     		uxtb	r3, r3
 373 000a 1370     		strb	r3, [r2]
 374              	.L45:
  86:Core/Src/mgr_bout.c ****     while (callback_cnt > 0) {
 375              		.loc 1 86 11 is_stmt 1 view .LVU74
  86:Core/Src/mgr_bout.c ****     while (callback_cnt > 0) {
 376              		.loc 1 86 25 is_stmt 0 view .LVU75
 377 000c 024B     		ldr	r3, .L47
 378 000e 1B78     		ldrb	r3, [r3]	@ zero_extendqisi2
  86:Core/Src/mgr_bout.c ****     while (callback_cnt > 0) {
 379              		.loc 1 86 11 view .LVU76
 380 0010 002B     		cmp	r3, #0
 381 0012 F6D1     		bne	.L46
  89:Core/Src/mgr_bout.c **** }
 382              		.loc 1 89 1 view .LVU77
 383 0014 7047     		bx	lr
 384              	.L48:
 385 0016 00BF     		.align	2
 386              	.L47:
 387 0018 00000000 		.word	.LANCHOR1
 388              		.cfi_endproc
 389              	.LFE71:
 391              		.section	.bss.bout_gpio,"aw",%nobits
 392              		.align	2
 393              		.set	.LANCHOR2,. + 0
 396              	bout_gpio:
 397 0000 00000000 		.space	96
 397      00000000 
 397      00000000 
 397      00000000 
 397      00000000 
 398              		.section	.bss.bouts_is_active,"aw",%nobits
 399              		.set	.LANCHOR0,. + 0
 402              	bouts_is_active:
 403 0000 00       		.space	1
 404              		.section	.bss.callback_cnt,"aw",%nobits
 405              		.set	.LANCHOR1,. + 0
 408              	callback_cnt:
 409 0000 00       		.space	1
 410              		.section	.rodata.bout_gpio_pins,"a"
 411              		.align	2
 412              		.set	.LANCHOR4,. + 0
 415              	bout_gpio_pins:
 416 0000 0F000103 		.ascii	"\017\000\001\003\004\005\013\006"
 416      04050B06 
 417              		.section	.rodata.bout_gpio_ports,"a"
 418              		.align	2
 419              		.set	.LANCHOR3,. + 0
 422              	bout_gpio_ports:
 423 0000 41424242 		.ascii	"ABBBBBBB"
ARM GAS  /tmp/ccrjupSi.s 			page 11


 423      42424242 
 424              		.text
 425              	.Letext0:
 426              		.file 2 "/home/callum/.config/Code/User/globalStorage/bmd.stm32-for-vscode/@xpack-dev-tools/arm-no
 427              		.file 3 "/home/callum/.config/Code/User/globalStorage/bmd.stm32-for-vscode/@xpack-dev-tools/arm-no
 428              		.file 4 "Drivers/CMSIS/Device/ST/STM32F1xx/Include/stm32f103xb.h"
 429              		.file 5 "Core/Inc/hw_stmgpio.h"
 430              		.file 6 "Core/Inc/hw_systick.h"
ARM GAS  /tmp/ccrjupSi.s 			page 12

