ARM GAS  /tmp/cc35t6wd.s 			page 1


   1              		.cpu cortex-m3
   2              		.arch armv7-m
   3              		.fpu softvfp
   4              		.eabi_attribute 20, 1
   5              		.eabi_attribute 21, 1
   6              		.eabi_attribute 23, 3
   7              		.eabi_attribute 24, 1
   8              		.eabi_attribute 25, 1
   9              		.eabi_attribute 26, 1
  10              		.eabi_attribute 30, 1
  11              		.eabi_attribute 34, 1
  12              		.eabi_attribute 18, 4
  13              		.file	"mgr_i2c.c"
  14              		.text
  15              	.Ltext0:
  16              		.cfi_sections	.debug_frame
  17              		.section	.text.i2c_state_error,"ax",%progbits
  18              		.align	1
  19              		.global	i2c_state_error
  20              		.syntax unified
  21              		.thumb
  22              		.thumb_func
  24              	i2c_state_error:
  25              	.LFB77:
  26              		.file 1 "Core/Src/mgr_i2c.c"
   1:Core/Src/mgr_i2c.c **** /* Includes ------------------------------------------------------------------*/
   2:Core/Src/mgr_i2c.c **** #include "mgr_i2c.h"
   3:Core/Src/mgr_i2c.c **** 
   4:Core/Src/mgr_i2c.c **** /* buffer data storage and buffer handlers */
   5:Core/Src/mgr_i2c.c **** static buffer_t msg_buf;
   6:Core/Src/mgr_i2c.c **** static i2c_msg_t msg_buf_data[I2C_MSG_BUF_LEN];
   7:Core/Src/mgr_i2c.c **** 
   8:Core/Src/mgr_i2c.c **** /* storage for working message */
   9:Core/Src/mgr_i2c.c **** static i2c_msg_t msg_cur;
  10:Core/Src/mgr_i2c.c **** static uint8_t bytes_to_send;
  11:Core/Src/mgr_i2c.c **** static uint8_t bytes_to_recv;
  12:Core/Src/mgr_i2c.c **** 
  13:Core/Src/mgr_i2c.c **** /* state transitions */
  14:Core/Src/mgr_i2c.c **** static I2C_EVENT last_evt;
  15:Core/Src/mgr_i2c.c **** static bool state_executed;
  16:Core/Src/mgr_i2c.c **** static bool last_evt_processed;
  17:Core/Src/mgr_i2c.c **** static void (*cur_state)(void);
  18:Core/Src/mgr_i2c.c **** const static trans_t TRANS_TAB[] = {
  19:Core/Src/mgr_i2c.c ****     {i2c_state_idle, I2C_NEW_DATA, i2c_state_start_bit},
  20:Core/Src/mgr_i2c.c ****     {i2c_state_start_bit, I2C_SB_SENT, i2c_state_tx_data},
  21:Core/Src/mgr_i2c.c ****     {i2c_state_tx_data, I2C_BYTE_SENT, i2c_state_tx_data},
  22:Core/Src/mgr_i2c.c ****     {i2c_state_tx_data, I2C_LAST_BYTE_SENT_R, i2c_state_start_bit},
  23:Core/Src/mgr_i2c.c ****     {i2c_state_start_bit, I2C_RPT_SB_SENT, i2c_state_rx_data},
  24:Core/Src/mgr_i2c.c ****     {i2c_state_tx_data, I2C_LAST_BYTE_SENT_W, i2c_state_stop_bit},
  25:Core/Src/mgr_i2c.c ****     {i2c_state_rx_data, I2C_BYTE_RECV, i2c_state_rx_data},
  26:Core/Src/mgr_i2c.c ****     {i2c_state_rx_data, I2C_LAST_BYTE_RECV, i2c_state_stop_bit},
  27:Core/Src/mgr_i2c.c ****     {i2c_state_stop_bit, I2C_PB_SENT, i2c_state_idle}};
  28:Core/Src/mgr_i2c.c **** const static uint8_t TRANS_TAB_LEN = (uint8_t)(sizeof(TRANS_TAB) / sizeof(TRANS_TAB[0]));
  29:Core/Src/mgr_i2c.c **** 
  30:Core/Src/mgr_i2c.c **** /* /*/
  31:Core/Src/mgr_i2c.c **** I2C_EVENT i2c_decode_i2c1_event(I2C1_EVT i2c1_evt)
  32:Core/Src/mgr_i2c.c **** {
ARM GAS  /tmp/cc35t6wd.s 			page 2


  33:Core/Src/mgr_i2c.c ****   I2C_EVENT evt = I2C_ERROR;
  34:Core/Src/mgr_i2c.c **** 
  35:Core/Src/mgr_i2c.c ****   switch (i2c1_evt)
  36:Core/Src/mgr_i2c.c ****   {
  37:Core/Src/mgr_i2c.c ****   case I2C1_EVT_SB:
  38:Core/Src/mgr_i2c.c ****     if (bytes_to_send > 0)
  39:Core/Src/mgr_i2c.c ****     {
  40:Core/Src/mgr_i2c.c ****       evt = I2C_SB_SENT;
  41:Core/Src/mgr_i2c.c ****     }
  42:Core/Src/mgr_i2c.c ****     else
  43:Core/Src/mgr_i2c.c ****     {
  44:Core/Src/mgr_i2c.c ****       evt = I2C_RPT_SB_SENT;
  45:Core/Src/mgr_i2c.c ****     }
  46:Core/Src/mgr_i2c.c ****     break;
  47:Core/Src/mgr_i2c.c ****   case I2C1_EVT_ADDR:
  48:Core/Src/mgr_i2c.c ****     evt = I2C_BYTE_SENT;
  49:Core/Src/mgr_i2c.c ****     break;
  50:Core/Src/mgr_i2c.c ****   case I2C1_EVT_ADD10:
  51:Core/Src/mgr_i2c.c ****     evt = I2C_BYTE_SENT;
  52:Core/Src/mgr_i2c.c ****     break;
  53:Core/Src/mgr_i2c.c ****   /* ignore BTF. No worth in this machine */
  54:Core/Src/mgr_i2c.c ****   case I2C1_EVT_BTF:
  55:Core/Src/mgr_i2c.c ****     break;
  56:Core/Src/mgr_i2c.c ****   case I2C1_EVT_TxE:
  57:Core/Src/mgr_i2c.c ****     /* if we've sent all the bytes */
  58:Core/Src/mgr_i2c.c ****     if (bytes_to_send)
  59:Core/Src/mgr_i2c.c ****     {
  60:Core/Src/mgr_i2c.c ****       /* if its a write operation */
  61:Core/Src/mgr_i2c.c ****       if (bytes_to_recv)
  62:Core/Src/mgr_i2c.c ****       {
  63:Core/Src/mgr_i2c.c ****         evt = I2C_LAST_BYTE_SENT_W;
  64:Core/Src/mgr_i2c.c ****       }
  65:Core/Src/mgr_i2c.c ****       /* else a read operation */
  66:Core/Src/mgr_i2c.c ****       else
  67:Core/Src/mgr_i2c.c ****       {
  68:Core/Src/mgr_i2c.c ****         evt = I2C_LAST_BYTE_SENT_R;
  69:Core/Src/mgr_i2c.c ****       }
  70:Core/Src/mgr_i2c.c ****     }
  71:Core/Src/mgr_i2c.c ****     /* else we need to send more bytes */
  72:Core/Src/mgr_i2c.c ****     else
  73:Core/Src/mgr_i2c.c ****     {
  74:Core/Src/mgr_i2c.c ****       evt = I2C_BYTE_SENT;
  75:Core/Src/mgr_i2c.c ****     }
  76:Core/Src/mgr_i2c.c ****     break;
  77:Core/Src/mgr_i2c.c ****   case I2C1_EVT_RxNE:
  78:Core/Src/mgr_i2c.c ****     /* if we've recv'd all the bytes */
  79:Core/Src/mgr_i2c.c ****     if (bytes_to_recv)
  80:Core/Src/mgr_i2c.c ****     {
  81:Core/Src/mgr_i2c.c ****       evt = I2C_LAST_BYTE_RECV;
  82:Core/Src/mgr_i2c.c ****     }
  83:Core/Src/mgr_i2c.c ****     /* else we need to send more bytes */
  84:Core/Src/mgr_i2c.c ****     else
  85:Core/Src/mgr_i2c.c ****     {
  86:Core/Src/mgr_i2c.c ****       evt = I2C_BYTE_RECV;
  87:Core/Src/mgr_i2c.c ****     }
  88:Core/Src/mgr_i2c.c ****     break;
  89:Core/Src/mgr_i2c.c ****   default:
ARM GAS  /tmp/cc35t6wd.s 			page 3


  90:Core/Src/mgr_i2c.c ****     evt = I2C_ERROR;
  91:Core/Src/mgr_i2c.c ****     break;
  92:Core/Src/mgr_i2c.c ****   }
  93:Core/Src/mgr_i2c.c **** 
  94:Core/Src/mgr_i2c.c ****   return evt;
  95:Core/Src/mgr_i2c.c **** }
  96:Core/Src/mgr_i2c.c **** 
  97:Core/Src/mgr_i2c.c **** /* A device driver is queuing a message */
  98:Core/Src/mgr_i2c.c **** int i2c_queue_msg(i2c_msg_t *msg)
  99:Core/Src/mgr_i2c.c **** {
 100:Core/Src/mgr_i2c.c ****   /* checks */
 101:Core/Src/mgr_i2c.c ****   ASSERT_INT((NULL != msg->buf_send_ptr) && (NULL != msg->buf_recv_ptr) && (MSG_SEND_MIN <= msg->n_
 102:Core/Src/mgr_i2c.c **** 
 103:Core/Src/mgr_i2c.c ****   /* write message to the buffer */
 104:Core/Src/mgr_i2c.c ****   ASSERT_INT(buf_write(&msg_buf, msg, sizeof(i2c_msg_t)));
 105:Core/Src/mgr_i2c.c **** 
 106:Core/Src/mgr_i2c.c ****   /* poll in case we can start this instantly */
 107:Core/Src/mgr_i2c.c ****   i2c_poll_fsm();
 108:Core/Src/mgr_i2c.c **** 
 109:Core/Src/mgr_i2c.c ****   return EXIT_SUCCESS;
 110:Core/Src/mgr_i2c.c **** }
 111:Core/Src/mgr_i2c.c **** 
 112:Core/Src/mgr_i2c.c **** int i2c_init(void)
 113:Core/Src/mgr_i2c.c **** {
 114:Core/Src/mgr_i2c.c ****   /* Idle to start */
 115:Core/Src/mgr_i2c.c ****   cur_state = i2c_state_idle;
 116:Core/Src/mgr_i2c.c **** 
 117:Core/Src/mgr_i2c.c ****   /* Initialise i2c1 driver */
 118:Core/Src/mgr_i2c.c ****   ASSERT_INT(i2c1_init());
 119:Core/Src/mgr_i2c.c **** 
 120:Core/Src/mgr_i2c.c ****   /* Register our callbacks with the driver */
 121:Core/Src/mgr_i2c.c ****   i2c1_set_evt_callback(i2c_event_callback);
 122:Core/Src/mgr_i2c.c ****   i2c1_set_err_callback(i2c_error_callback);
 123:Core/Src/mgr_i2c.c **** 
 124:Core/Src/mgr_i2c.c ****   /* Initialise buffer */
 125:Core/Src/mgr_i2c.c ****   ASSERT_INT(buf_init(&msg_buf, msg_buf_data, sizeof(msg_buf_data)));
 126:Core/Src/mgr_i2c.c **** 
 127:Core/Src/mgr_i2c.c ****   /* Trigger reset before first usage */
 128:Core/Src/mgr_i2c.c ****   i2c_reset();
 129:Core/Src/mgr_i2c.c ****   i2c_enable();
 130:Core/Src/mgr_i2c.c **** 
 131:Core/Src/mgr_i2c.c ****   return EXIT_SUCCESS;
 132:Core/Src/mgr_i2c.c **** }
 133:Core/Src/mgr_i2c.c **** 
 134:Core/Src/mgr_i2c.c **** void i2c_reset(void)
 135:Core/Src/mgr_i2c.c **** {
 136:Core/Src/mgr_i2c.c ****   /* reset hardware perihperal */
 137:Core/Src/mgr_i2c.c ****   i2c1_reset_periph();
 138:Core/Src/mgr_i2c.c **** 
 139:Core/Src/mgr_i2c.c ****   /* reset buffers */
 140:Core/Src/mgr_i2c.c ****   buf_reset(&msg_buf);
 141:Core/Src/mgr_i2c.c **** 
 142:Core/Src/mgr_i2c.c ****   /*reset flags*/
 143:Core/Src/mgr_i2c.c ****   state_executed = false;
 144:Core/Src/mgr_i2c.c **** }
 145:Core/Src/mgr_i2c.c **** 
 146:Core/Src/mgr_i2c.c **** void i2c_enable(void)
ARM GAS  /tmp/cc35t6wd.s 			page 4


 147:Core/Src/mgr_i2c.c **** {
 148:Core/Src/mgr_i2c.c ****   /* Enable hardware perihperal */
 149:Core/Src/mgr_i2c.c ****   i2c1_enable_periph();
 150:Core/Src/mgr_i2c.c **** }
 151:Core/Src/mgr_i2c.c **** 
 152:Core/Src/mgr_i2c.c **** void i2c_disable(void)
 153:Core/Src/mgr_i2c.c **** {
 154:Core/Src/mgr_i2c.c ****   /* Disable hardware perihperal */
 155:Core/Src/mgr_i2c.c ****   i2c1_disable_periph();
 156:Core/Src/mgr_i2c.c **** }
 157:Core/Src/mgr_i2c.c **** 
 158:Core/Src/mgr_i2c.c **** void i2c_poll_fsm(void)
 159:Core/Src/mgr_i2c.c **** {
 160:Core/Src/mgr_i2c.c ****   cur_state();
 161:Core/Src/mgr_i2c.c **** }
 162:Core/Src/mgr_i2c.c **** 
 163:Core/Src/mgr_i2c.c **** void i2c_state_idle(void)
 164:Core/Src/mgr_i2c.c **** {
 165:Core/Src/mgr_i2c.c ****   /* Do something if buffer not empty */
 166:Core/Src/mgr_i2c.c ****   if (!buf_is_empty(&msg_buf))
 167:Core/Src/mgr_i2c.c ****   {
 168:Core/Src/mgr_i2c.c ****     /* init for new data */
 169:Core/Src/mgr_i2c.c ****     buf_read(&msg_buf, &msg_cur, sizeof(i2c_msg_t));
 170:Core/Src/mgr_i2c.c ****     bytes_to_send = msg_cur.n_send;
 171:Core/Src/mgr_i2c.c ****     bytes_to_recv = msg_cur.n_recv;
 172:Core/Src/mgr_i2c.c **** 
 173:Core/Src/mgr_i2c.c ****     /* Configure state machine */
 174:Core/Src/mgr_i2c.c ****     last_evt = I2C_NEW_DATA;
 175:Core/Src/mgr_i2c.c ****     i2c_trig_state_trans();
 176:Core/Src/mgr_i2c.c ****   }
 177:Core/Src/mgr_i2c.c **** }
 178:Core/Src/mgr_i2c.c **** 
 179:Core/Src/mgr_i2c.c **** void i2c_state_start_bit(void)
 180:Core/Src/mgr_i2c.c **** {
 181:Core/Src/mgr_i2c.c ****   if (!state_executed)
 182:Core/Src/mgr_i2c.c ****   {
 183:Core/Src/mgr_i2c.c ****     /* trigger start bit sending */
 184:Core/Src/mgr_i2c.c ****     i2c1_start();
 185:Core/Src/mgr_i2c.c ****     state_executed = true;
 186:Core/Src/mgr_i2c.c ****   }
 187:Core/Src/mgr_i2c.c **** }
 188:Core/Src/mgr_i2c.c **** 
 189:Core/Src/mgr_i2c.c **** void i2c_state_tx_data(void)
 190:Core/Src/mgr_i2c.c **** {
 191:Core/Src/mgr_i2c.c ****   if (!state_executed)
 192:Core/Src/mgr_i2c.c ****   {
 193:Core/Src/mgr_i2c.c ****     /* Write new data to send */
 194:Core/Src/mgr_i2c.c ****     if (EXIT_SUCCESS == i2c1_send(&(msg_cur.buf_send_ptr[bytes_to_send])))
 195:Core/Src/mgr_i2c.c ****     {
 196:Core/Src/mgr_i2c.c ****       bytes_to_send--;
 197:Core/Src/mgr_i2c.c ****     }
 198:Core/Src/mgr_i2c.c ****     else
 199:Core/Src/mgr_i2c.c ****     {
 200:Core/Src/mgr_i2c.c ****       last_evt = I2C_ERROR;
 201:Core/Src/mgr_i2c.c ****       i2c_trig_state_trans();
 202:Core/Src/mgr_i2c.c ****     }
 203:Core/Src/mgr_i2c.c ****     state_executed = true;
ARM GAS  /tmp/cc35t6wd.s 			page 5


 204:Core/Src/mgr_i2c.c ****   }
 205:Core/Src/mgr_i2c.c **** }
 206:Core/Src/mgr_i2c.c **** 
 207:Core/Src/mgr_i2c.c **** void i2c_state_rx_data(void)
 208:Core/Src/mgr_i2c.c **** {
 209:Core/Src/mgr_i2c.c ****   if (!state_executed)
 210:Core/Src/mgr_i2c.c ****   {
 211:Core/Src/mgr_i2c.c ****     if (EXIT_SUCCESS == i2c1_recv(&(msg_cur.buf_recv_ptr)[msg_cur.n_recv - bytes_to_recv]))
 212:Core/Src/mgr_i2c.c ****     {
 213:Core/Src/mgr_i2c.c ****       bytes_to_recv--;
 214:Core/Src/mgr_i2c.c ****       if (bytes_to_recv)
 215:Core/Src/mgr_i2c.c ****       {
 216:Core/Src/mgr_i2c.c ****         i2c1_nack_bit();
 217:Core/Src/mgr_i2c.c ****       }
 218:Core/Src/mgr_i2c.c ****       else
 219:Core/Src/mgr_i2c.c ****       {
 220:Core/Src/mgr_i2c.c ****         i2c1_ack_bit();
 221:Core/Src/mgr_i2c.c ****       }
 222:Core/Src/mgr_i2c.c ****     }
 223:Core/Src/mgr_i2c.c ****     else
 224:Core/Src/mgr_i2c.c ****     {
 225:Core/Src/mgr_i2c.c ****       last_evt = I2C_ERROR;
 226:Core/Src/mgr_i2c.c ****       i2c_trig_state_trans();
 227:Core/Src/mgr_i2c.c ****     }
 228:Core/Src/mgr_i2c.c ****     state_executed = true;
 229:Core/Src/mgr_i2c.c ****   }
 230:Core/Src/mgr_i2c.c **** }
 231:Core/Src/mgr_i2c.c **** 
 232:Core/Src/mgr_i2c.c **** void i2c_state_stop_bit(void)
 233:Core/Src/mgr_i2c.c **** {
 234:Core/Src/mgr_i2c.c ****   i2c1_stop();
 235:Core/Src/mgr_i2c.c **** }
 236:Core/Src/mgr_i2c.c **** 
 237:Core/Src/mgr_i2c.c **** void i2c_state_error(void)
 238:Core/Src/mgr_i2c.c **** {
  27              		.loc 1 238 1 view -0
  28              		.cfi_startproc
  29              		@ Volatile: function does not return.
  30              		@ args = 0, pretend = 0, frame = 0
  31              		@ frame_needed = 0, uses_anonymous_args = 0
  32              		@ link register save eliminated.
  33              	.L2:
 239:Core/Src/mgr_i2c.c ****   while (1)
  34              		.loc 1 239 3 discriminator 1 view .LVU1
 240:Core/Src/mgr_i2c.c ****     ;
  35              		.loc 1 240 5 discriminator 1 view .LVU2
 239:Core/Src/mgr_i2c.c ****   while (1)
  36              		.loc 1 239 9 discriminator 1 view .LVU3
  37 0000 FEE7     		b	.L2
  38              		.cfi_endproc
  39              	.LFE77:
  41              		.section	.text.i2c_error_callback,"ax",%progbits
  42              		.align	1
  43              		.global	i2c_error_callback
  44              		.syntax unified
  45              		.thumb
  46              		.thumb_func
ARM GAS  /tmp/cc35t6wd.s 			page 6


  48              	i2c_error_callback:
  49              	.LFB80:
 241:Core/Src/mgr_i2c.c **** }
 242:Core/Src/mgr_i2c.c **** 
 243:Core/Src/mgr_i2c.c **** void i2c_trig_state_trans(void)
 244:Core/Src/mgr_i2c.c **** {
 245:Core/Src/mgr_i2c.c ****   static uint8_t idx;
 246:Core/Src/mgr_i2c.c **** 
 247:Core/Src/mgr_i2c.c ****   
 248:Core/Src/mgr_i2c.c **** 
 249:Core/Src/mgr_i2c.c ****   /* Find state transition action */
 250:Core/Src/mgr_i2c.c ****   for (idx = 0; idx < TRANS_TAB_LEN; idx++)
 251:Core/Src/mgr_i2c.c ****   {
 252:Core/Src/mgr_i2c.c ****     if ((TRANS_TAB[idx].func_ptr_cur == cur_state) && (TRANS_TAB[idx].evt == last_evt))
 253:Core/Src/mgr_i2c.c ****     {
 254:Core/Src/mgr_i2c.c ****       cur_state = TRANS_TAB[idx].func_ptr_new;
 255:Core/Src/mgr_i2c.c ****       break;
 256:Core/Src/mgr_i2c.c ****     }
 257:Core/Src/mgr_i2c.c ****   }
 258:Core/Src/mgr_i2c.c **** 
 259:Core/Src/mgr_i2c.c ****   /* If not found, must be an error */
 260:Core/Src/mgr_i2c.c ****   if ((TRANS_TAB_LEN <= idx) || (I2C_ERROR == last_evt))
 261:Core/Src/mgr_i2c.c ****   {
 262:Core/Src/mgr_i2c.c ****     cur_state = i2c_state_error;
 263:Core/Src/mgr_i2c.c ****   }
 264:Core/Src/mgr_i2c.c **** 
 265:Core/Src/mgr_i2c.c ****   /* reset state entry condition */
 266:Core/Src/mgr_i2c.c ****   state_executed = false;
 267:Core/Src/mgr_i2c.c **** 
 268:Core/Src/mgr_i2c.c ****   /* Call new state function */
 269:Core/Src/mgr_i2c.c ****   // cur_state();
 270:Core/Src/mgr_i2c.c **** }
 271:Core/Src/mgr_i2c.c **** 
 272:Core/Src/mgr_i2c.c **** void i2c_event_callback()
 273:Core/Src/mgr_i2c.c **** {
 274:Core/Src/mgr_i2c.c ****   /* Figure out what happened */
 275:Core/Src/mgr_i2c.c ****   last_evt = i2c_decode_i2c1_event(i2c1_get_last_event());
 276:Core/Src/mgr_i2c.c **** 
 277:Core/Src/mgr_i2c.c ****   /* Transition to new state based on event and run */
 278:Core/Src/mgr_i2c.c ****   i2c_trig_state_trans();
 279:Core/Src/mgr_i2c.c ****   cur_state();
 280:Core/Src/mgr_i2c.c **** 
 281:Core/Src/mgr_i2c.c ****   /* humour i2c peripheral */
 282:Core/Src/mgr_i2c.c ****   // i2c1_SR1_dummy_read();
 283:Core/Src/mgr_i2c.c ****   // i2c1_SR2_dummy_read();
 284:Core/Src/mgr_i2c.c **** }
 285:Core/Src/mgr_i2c.c **** 
 286:Core/Src/mgr_i2c.c **** void i2c_error_callback()
 287:Core/Src/mgr_i2c.c **** {
  50              		.loc 1 287 1 view -0
  51              		.cfi_startproc
  52              		@ Volatile: function does not return.
  53              		@ args = 0, pretend = 0, frame = 0
  54              		@ frame_needed = 0, uses_anonymous_args = 0
  55 0000 08B5     		push	{r3, lr}
  56              		.cfi_def_cfa_offset 8
  57              		.cfi_offset 3, -8
ARM GAS  /tmp/cc35t6wd.s 			page 7


  58              		.cfi_offset 14, -4
 288:Core/Src/mgr_i2c.c ****   i2c_state_error();
  59              		.loc 1 288 3 view .LVU5
  60 0002 FFF7FEFF 		bl	i2c_state_error
  61              	.LVL0:
  62              		.cfi_endproc
  63              	.LFE80:
  65              		.section	.text.i2c_state_start_bit,"ax",%progbits
  66              		.align	1
  67              		.global	i2c_state_start_bit
  68              		.syntax unified
  69              		.thumb
  70              		.thumb_func
  72              	i2c_state_start_bit:
  73              	.LFB73:
 180:Core/Src/mgr_i2c.c ****   if (!state_executed)
  74              		.loc 1 180 1 view -0
  75              		.cfi_startproc
  76              		@ args = 0, pretend = 0, frame = 0
  77              		@ frame_needed = 0, uses_anonymous_args = 0
  78 0000 08B5     		push	{r3, lr}
  79              		.cfi_def_cfa_offset 8
  80              		.cfi_offset 3, -8
  81              		.cfi_offset 14, -4
 181:Core/Src/mgr_i2c.c ****   {
  82              		.loc 1 181 3 view .LVU7
 181:Core/Src/mgr_i2c.c ****   {
  83              		.loc 1 181 7 is_stmt 0 view .LVU8
  84 0002 054B     		ldr	r3, .L9
  85 0004 1B78     		ldrb	r3, [r3]	@ zero_extendqisi2
 181:Core/Src/mgr_i2c.c ****   {
  86              		.loc 1 181 6 view .LVU9
  87 0006 03B1     		cbz	r3, .L8
  88              	.L5:
 187:Core/Src/mgr_i2c.c **** 
  89              		.loc 1 187 1 view .LVU10
  90 0008 08BD     		pop	{r3, pc}
  91              	.L8:
 184:Core/Src/mgr_i2c.c ****     state_executed = true;
  92              		.loc 1 184 5 is_stmt 1 view .LVU11
  93 000a FFF7FEFF 		bl	i2c1_start
  94              	.LVL1:
 185:Core/Src/mgr_i2c.c ****   }
  95              		.loc 1 185 5 view .LVU12
 185:Core/Src/mgr_i2c.c ****   }
  96              		.loc 1 185 20 is_stmt 0 view .LVU13
  97 000e 024B     		ldr	r3, .L9
  98 0010 0122     		movs	r2, #1
  99 0012 1A70     		strb	r2, [r3]
 187:Core/Src/mgr_i2c.c **** 
 100              		.loc 1 187 1 view .LVU14
 101 0014 F8E7     		b	.L5
 102              	.L10:
 103 0016 00BF     		.align	2
 104              	.L9:
 105 0018 00000000 		.word	.LANCHOR0
 106              		.cfi_endproc
ARM GAS  /tmp/cc35t6wd.s 			page 8


 107              	.LFE73:
 109              		.section	.text.i2c_state_stop_bit,"ax",%progbits
 110              		.align	1
 111              		.global	i2c_state_stop_bit
 112              		.syntax unified
 113              		.thumb
 114              		.thumb_func
 116              	i2c_state_stop_bit:
 117              	.LFB76:
 233:Core/Src/mgr_i2c.c ****   i2c1_stop();
 118              		.loc 1 233 1 is_stmt 1 view -0
 119              		.cfi_startproc
 120              		@ args = 0, pretend = 0, frame = 0
 121              		@ frame_needed = 0, uses_anonymous_args = 0
 122 0000 08B5     		push	{r3, lr}
 123              		.cfi_def_cfa_offset 8
 124              		.cfi_offset 3, -8
 125              		.cfi_offset 14, -4
 234:Core/Src/mgr_i2c.c **** }
 126              		.loc 1 234 3 view .LVU16
 127 0002 FFF7FEFF 		bl	i2c1_stop
 128              	.LVL2:
 235:Core/Src/mgr_i2c.c **** 
 129              		.loc 1 235 1 is_stmt 0 view .LVU17
 130 0006 08BD     		pop	{r3, pc}
 131              		.cfi_endproc
 132              	.LFE76:
 134              		.section	.text.i2c_decode_i2c1_event,"ax",%progbits
 135              		.align	1
 136              		.global	i2c_decode_i2c1_event
 137              		.syntax unified
 138              		.thumb
 139              		.thumb_func
 141              	i2c_decode_i2c1_event:
 142              	.LVL3:
 143              	.LFB65:
  32:Core/Src/mgr_i2c.c ****   I2C_EVENT evt = I2C_ERROR;
 144              		.loc 1 32 1 is_stmt 1 view -0
 145              		.cfi_startproc
 146              		@ args = 0, pretend = 0, frame = 0
 147              		@ frame_needed = 0, uses_anonymous_args = 0
 148              		@ link register save eliminated.
  33:Core/Src/mgr_i2c.c **** 
 149              		.loc 1 33 3 view .LVU19
  35:Core/Src/mgr_i2c.c ****   {
 150              		.loc 1 35 3 view .LVU20
 151 0000 0828     		cmp	r0, #8
 152 0002 1DD0     		beq	.L19
 153 0004 0BD9     		bls	.L25
 154 0006 4028     		cmp	r0, #64
 155 0008 15D0     		beq	.L17
 156 000a 8028     		cmp	r0, #128
 157 000c 0DD1     		bne	.L26
  58:Core/Src/mgr_i2c.c ****     {
 158              		.loc 1 58 5 view .LVU21
  58:Core/Src/mgr_i2c.c ****     {
 159              		.loc 1 58 9 is_stmt 0 view .LVU22
ARM GAS  /tmp/cc35t6wd.s 			page 9


 160 000e 124B     		ldr	r3, .L27
 161 0010 1B78     		ldrb	r3, [r3]	@ zero_extendqisi2
  58:Core/Src/mgr_i2c.c ****     {
 162              		.loc 1 58 8 view .LVU23
 163 0012 DBB1     		cbz	r3, .L22
  61:Core/Src/mgr_i2c.c ****       {
 164              		.loc 1 61 7 is_stmt 1 view .LVU24
  61:Core/Src/mgr_i2c.c ****       {
 165              		.loc 1 61 11 is_stmt 0 view .LVU25
 166 0014 114B     		ldr	r3, .L27+4
 167 0016 1B78     		ldrb	r3, [r3]	@ zero_extendqisi2
  61:Core/Src/mgr_i2c.c ****       {
 168              		.loc 1 61 10 view .LVU26
 169 0018 D3B1     		cbz	r3, .L23
  63:Core/Src/mgr_i2c.c ****       }
 170              		.loc 1 63 13 view .LVU27
 171 001a 0520     		movs	r0, #5
 172              	.LVL4:
  63:Core/Src/mgr_i2c.c ****       }
 173              		.loc 1 63 13 view .LVU28
 174 001c 7047     		bx	lr
 175              	.LVL5:
 176              	.L25:
  35:Core/Src/mgr_i2c.c ****   {
 177              		.loc 1 35 3 view .LVU29
 178 001e 0128     		cmp	r0, #1
 179 0020 05D0     		beq	.L16
 180 0022 0228     		cmp	r0, #2
 181 0024 0ED1     		bne	.L20
  48:Core/Src/mgr_i2c.c ****     break;
 182              		.loc 1 48 9 view .LVU30
 183 0026 0420     		movs	r0, #4
 184              	.LVL6:
  48:Core/Src/mgr_i2c.c ****     break;
 185              		.loc 1 48 9 view .LVU31
 186 0028 7047     		bx	lr
 187              	.LVL7:
 188              	.L26:
  35:Core/Src/mgr_i2c.c ****   {
 189              		.loc 1 35 3 view .LVU32
 190 002a 0920     		movs	r0, #9
 191              	.LVL8:
  35:Core/Src/mgr_i2c.c ****   {
 192              		.loc 1 35 3 view .LVU33
 193 002c 7047     		bx	lr
 194              	.LVL9:
 195              	.L16:
  38:Core/Src/mgr_i2c.c ****     {
 196              		.loc 1 38 5 is_stmt 1 view .LVU34
  38:Core/Src/mgr_i2c.c ****     {
 197              		.loc 1 38 23 is_stmt 0 view .LVU35
 198 002e 0A4B     		ldr	r3, .L27
 199 0030 1B78     		ldrb	r3, [r3]	@ zero_extendqisi2
  38:Core/Src/mgr_i2c.c ****     {
 200              		.loc 1 38 8 view .LVU36
 201 0032 4BB1     		cbz	r3, .L21
 202 0034 7047     		bx	lr
ARM GAS  /tmp/cc35t6wd.s 			page 10


 203              	.L17:
  79:Core/Src/mgr_i2c.c ****     {
 204              		.loc 1 79 5 is_stmt 1 view .LVU37
  79:Core/Src/mgr_i2c.c ****     {
 205              		.loc 1 79 9 is_stmt 0 view .LVU38
 206 0036 094B     		ldr	r3, .L27+4
 207 0038 1B78     		ldrb	r3, [r3]	@ zero_extendqisi2
  79:Core/Src/mgr_i2c.c ****     {
 208              		.loc 1 79 8 view .LVU39
 209 003a 5BB1     		cbz	r3, .L24
  81:Core/Src/mgr_i2c.c ****     }
 210              		.loc 1 81 11 view .LVU40
 211 003c 0820     		movs	r0, #8
 212              	.LVL10:
  81:Core/Src/mgr_i2c.c ****     }
 213              		.loc 1 81 11 view .LVU41
 214 003e 7047     		bx	lr
 215              	.LVL11:
 216              	.L19:
  51:Core/Src/mgr_i2c.c ****     break;
 217              		.loc 1 51 9 view .LVU42
 218 0040 0420     		movs	r0, #4
 219              	.LVL12:
  51:Core/Src/mgr_i2c.c ****     break;
 220              		.loc 1 51 9 view .LVU43
 221 0042 7047     		bx	lr
 222              	.LVL13:
 223              	.L20:
  35:Core/Src/mgr_i2c.c ****   {
 224              		.loc 1 35 3 view .LVU44
 225 0044 0920     		movs	r0, #9
 226              	.LVL14:
  35:Core/Src/mgr_i2c.c ****   {
 227              		.loc 1 35 3 view .LVU45
 228 0046 7047     		bx	lr
 229              	.LVL15:
 230              	.L21:
  44:Core/Src/mgr_i2c.c ****     }
 231              		.loc 1 44 11 view .LVU46
 232 0048 0220     		movs	r0, #2
 233              	.LVL16:
  44:Core/Src/mgr_i2c.c ****     }
 234              		.loc 1 44 11 view .LVU47
 235 004a 7047     		bx	lr
 236              	.LVL17:
 237              	.L22:
  74:Core/Src/mgr_i2c.c ****     }
 238              		.loc 1 74 11 view .LVU48
 239 004c 0420     		movs	r0, #4
 240              	.LVL18:
  74:Core/Src/mgr_i2c.c ****     }
 241              		.loc 1 74 11 view .LVU49
 242 004e 7047     		bx	lr
 243              	.LVL19:
 244              	.L23:
  68:Core/Src/mgr_i2c.c ****       }
 245              		.loc 1 68 13 view .LVU50
ARM GAS  /tmp/cc35t6wd.s 			page 11


 246 0050 0620     		movs	r0, #6
 247              	.LVL20:
  68:Core/Src/mgr_i2c.c ****       }
 248              		.loc 1 68 13 view .LVU51
 249 0052 7047     		bx	lr
 250              	.LVL21:
 251              	.L24:
  86:Core/Src/mgr_i2c.c ****     }
 252              		.loc 1 86 11 view .LVU52
 253 0054 0720     		movs	r0, #7
 254              	.LVL22:
  94:Core/Src/mgr_i2c.c **** }
 255              		.loc 1 94 3 is_stmt 1 view .LVU53
  95:Core/Src/mgr_i2c.c **** 
 256              		.loc 1 95 1 is_stmt 0 view .LVU54
 257 0056 7047     		bx	lr
 258              	.L28:
 259              		.align	2
 260              	.L27:
 261 0058 00000000 		.word	.LANCHOR1
 262 005c 00000000 		.word	.LANCHOR2
 263              		.cfi_endproc
 264              	.LFE65:
 266              		.section	.text.i2c_reset,"ax",%progbits
 267              		.align	1
 268              		.global	i2c_reset
 269              		.syntax unified
 270              		.thumb
 271              		.thumb_func
 273              	i2c_reset:
 274              	.LFB68:
 135:Core/Src/mgr_i2c.c ****   /* reset hardware perihperal */
 275              		.loc 1 135 1 is_stmt 1 view -0
 276              		.cfi_startproc
 277              		@ args = 0, pretend = 0, frame = 0
 278              		@ frame_needed = 0, uses_anonymous_args = 0
 279 0000 08B5     		push	{r3, lr}
 280              		.cfi_def_cfa_offset 8
 281              		.cfi_offset 3, -8
 282              		.cfi_offset 14, -4
 137:Core/Src/mgr_i2c.c **** 
 283              		.loc 1 137 3 view .LVU56
 284 0002 FFF7FEFF 		bl	i2c1_reset_periph
 285              	.LVL23:
 140:Core/Src/mgr_i2c.c **** 
 286              		.loc 1 140 3 view .LVU57
 287 0006 0348     		ldr	r0, .L31
 288 0008 FFF7FEFF 		bl	buf_reset
 289              	.LVL24:
 143:Core/Src/mgr_i2c.c **** }
 290              		.loc 1 143 3 view .LVU58
 143:Core/Src/mgr_i2c.c **** }
 291              		.loc 1 143 18 is_stmt 0 view .LVU59
 292 000c 024B     		ldr	r3, .L31+4
 293 000e 0022     		movs	r2, #0
 294 0010 1A70     		strb	r2, [r3]
 144:Core/Src/mgr_i2c.c **** 
ARM GAS  /tmp/cc35t6wd.s 			page 12


 295              		.loc 1 144 1 view .LVU60
 296 0012 08BD     		pop	{r3, pc}
 297              	.L32:
 298              		.align	2
 299              	.L31:
 300 0014 00000000 		.word	.LANCHOR3
 301 0018 00000000 		.word	.LANCHOR0
 302              		.cfi_endproc
 303              	.LFE68:
 305              		.section	.text.i2c_enable,"ax",%progbits
 306              		.align	1
 307              		.global	i2c_enable
 308              		.syntax unified
 309              		.thumb
 310              		.thumb_func
 312              	i2c_enable:
 313              	.LFB69:
 147:Core/Src/mgr_i2c.c ****   /* Enable hardware perihperal */
 314              		.loc 1 147 1 is_stmt 1 view -0
 315              		.cfi_startproc
 316              		@ args = 0, pretend = 0, frame = 0
 317              		@ frame_needed = 0, uses_anonymous_args = 0
 318 0000 08B5     		push	{r3, lr}
 319              		.cfi_def_cfa_offset 8
 320              		.cfi_offset 3, -8
 321              		.cfi_offset 14, -4
 149:Core/Src/mgr_i2c.c **** }
 322              		.loc 1 149 3 view .LVU62
 323 0002 FFF7FEFF 		bl	i2c1_enable_periph
 324              	.LVL25:
 150:Core/Src/mgr_i2c.c **** 
 325              		.loc 1 150 1 is_stmt 0 view .LVU63
 326 0006 08BD     		pop	{r3, pc}
 327              		.cfi_endproc
 328              	.LFE69:
 330              		.section	.text.i2c_init,"ax",%progbits
 331              		.align	1
 332              		.global	i2c_init
 333              		.syntax unified
 334              		.thumb
 335              		.thumb_func
 337              	i2c_init:
 338              	.LFB67:
 113:Core/Src/mgr_i2c.c ****   /* Idle to start */
 339              		.loc 1 113 1 is_stmt 1 view -0
 340              		.cfi_startproc
 341              		@ args = 0, pretend = 0, frame = 0
 342              		@ frame_needed = 0, uses_anonymous_args = 0
 343 0000 10B5     		push	{r4, lr}
 344              		.cfi_def_cfa_offset 8
 345              		.cfi_offset 4, -8
 346              		.cfi_offset 14, -4
 115:Core/Src/mgr_i2c.c **** 
 347              		.loc 1 115 3 view .LVU65
 115:Core/Src/mgr_i2c.c **** 
 348              		.loc 1 115 13 is_stmt 0 view .LVU66
 349 0002 0E4B     		ldr	r3, .L42
ARM GAS  /tmp/cc35t6wd.s 			page 13


 350 0004 0E4A     		ldr	r2, .L42+4
 351 0006 1A60     		str	r2, [r3]
 118:Core/Src/mgr_i2c.c **** 
 352              		.loc 1 118 3 is_stmt 1 view .LVU67
 353 0008 FFF7FEFF 		bl	i2c1_init
 354              	.LVL26:
 355 000c 10B1     		cbz	r0, .L40
 356 000e 0124     		movs	r4, #1
 357              	.L35:
 132:Core/Src/mgr_i2c.c **** 
 358              		.loc 1 132 1 is_stmt 0 view .LVU68
 359 0010 2046     		mov	r0, r4
 360 0012 10BD     		pop	{r4, pc}
 361              	.L40:
 121:Core/Src/mgr_i2c.c ****   i2c1_set_err_callback(i2c_error_callback);
 362              		.loc 1 121 3 is_stmt 1 view .LVU69
 363 0014 0B48     		ldr	r0, .L42+8
 364 0016 FFF7FEFF 		bl	i2c1_set_evt_callback
 365              	.LVL27:
 122:Core/Src/mgr_i2c.c **** 
 366              		.loc 1 122 3 view .LVU70
 367 001a 0B48     		ldr	r0, .L42+12
 368 001c FFF7FEFF 		bl	i2c1_set_err_callback
 369              	.LVL28:
 125:Core/Src/mgr_i2c.c **** 
 370              		.loc 1 125 3 view .LVU71
 371 0020 F022     		movs	r2, #240
 372 0022 0A49     		ldr	r1, .L42+16
 373 0024 0A48     		ldr	r0, .L42+20
 374 0026 FFF7FEFF 		bl	buf_init
 375              	.LVL29:
 376 002a 0446     		mov	r4, r0
 377 002c 08B1     		cbz	r0, .L41
 378 002e 0124     		movs	r4, #1
 379 0030 EEE7     		b	.L35
 380              	.L41:
 128:Core/Src/mgr_i2c.c ****   i2c_enable();
 381              		.loc 1 128 3 view .LVU72
 382 0032 FFF7FEFF 		bl	i2c_reset
 383              	.LVL30:
 129:Core/Src/mgr_i2c.c **** 
 384              		.loc 1 129 3 view .LVU73
 385 0036 FFF7FEFF 		bl	i2c_enable
 386              	.LVL31:
 131:Core/Src/mgr_i2c.c **** }
 387              		.loc 1 131 3 view .LVU74
 131:Core/Src/mgr_i2c.c **** }
 388              		.loc 1 131 10 is_stmt 0 view .LVU75
 389 003a E9E7     		b	.L35
 390              	.L43:
 391              		.align	2
 392              	.L42:
 393 003c 00000000 		.word	.LANCHOR4
 394 0040 00000000 		.word	i2c_state_idle
 395 0044 00000000 		.word	i2c_event_callback
 396 0048 00000000 		.word	i2c_error_callback
 397 004c 00000000 		.word	.LANCHOR5
ARM GAS  /tmp/cc35t6wd.s 			page 14


 398 0050 00000000 		.word	.LANCHOR3
 399              		.cfi_endproc
 400              	.LFE67:
 402              		.section	.text.i2c_disable,"ax",%progbits
 403              		.align	1
 404              		.global	i2c_disable
 405              		.syntax unified
 406              		.thumb
 407              		.thumb_func
 409              	i2c_disable:
 410              	.LFB70:
 153:Core/Src/mgr_i2c.c ****   /* Disable hardware perihperal */
 411              		.loc 1 153 1 is_stmt 1 view -0
 412              		.cfi_startproc
 413              		@ args = 0, pretend = 0, frame = 0
 414              		@ frame_needed = 0, uses_anonymous_args = 0
 415 0000 08B5     		push	{r3, lr}
 416              		.cfi_def_cfa_offset 8
 417              		.cfi_offset 3, -8
 418              		.cfi_offset 14, -4
 155:Core/Src/mgr_i2c.c **** }
 419              		.loc 1 155 3 view .LVU77
 420 0002 FFF7FEFF 		bl	i2c1_disable_periph
 421              	.LVL32:
 156:Core/Src/mgr_i2c.c **** 
 422              		.loc 1 156 1 is_stmt 0 view .LVU78
 423 0006 08BD     		pop	{r3, pc}
 424              		.cfi_endproc
 425              	.LFE70:
 427              		.section	.text.i2c_poll_fsm,"ax",%progbits
 428              		.align	1
 429              		.global	i2c_poll_fsm
 430              		.syntax unified
 431              		.thumb
 432              		.thumb_func
 434              	i2c_poll_fsm:
 435              	.LFB71:
 159:Core/Src/mgr_i2c.c ****   cur_state();
 436              		.loc 1 159 1 is_stmt 1 view -0
 437              		.cfi_startproc
 438              		@ args = 0, pretend = 0, frame = 0
 439              		@ frame_needed = 0, uses_anonymous_args = 0
 440 0000 08B5     		push	{r3, lr}
 441              		.cfi_def_cfa_offset 8
 442              		.cfi_offset 3, -8
 443              		.cfi_offset 14, -4
 160:Core/Src/mgr_i2c.c **** }
 444              		.loc 1 160 3 view .LVU80
 445 0002 024B     		ldr	r3, .L48
 446 0004 1B68     		ldr	r3, [r3]
 447 0006 9847     		blx	r3
 448              	.LVL33:
 161:Core/Src/mgr_i2c.c **** 
 449              		.loc 1 161 1 is_stmt 0 view .LVU81
 450 0008 08BD     		pop	{r3, pc}
 451              	.L49:
 452 000a 00BF     		.align	2
ARM GAS  /tmp/cc35t6wd.s 			page 15


 453              	.L48:
 454 000c 00000000 		.word	.LANCHOR4
 455              		.cfi_endproc
 456              	.LFE71:
 458              		.section	.text.i2c_queue_msg,"ax",%progbits
 459              		.align	1
 460              		.global	i2c_queue_msg
 461              		.syntax unified
 462              		.thumb
 463              		.thumb_func
 465              	i2c_queue_msg:
 466              	.LVL34:
 467              	.LFB66:
  99:Core/Src/mgr_i2c.c ****   /* checks */
 468              		.loc 1 99 1 is_stmt 1 view -0
 469              		.cfi_startproc
 470              		@ args = 0, pretend = 0, frame = 0
 471              		@ frame_needed = 0, uses_anonymous_args = 0
  99:Core/Src/mgr_i2c.c ****   /* checks */
 472              		.loc 1 99 1 is_stmt 0 view .LVU83
 473 0000 10B5     		push	{r4, lr}
 474              		.cfi_def_cfa_offset 8
 475              		.cfi_offset 4, -8
 476              		.cfi_offset 14, -4
 477 0002 0146     		mov	r1, r0
 101:Core/Src/mgr_i2c.c **** 
 478              		.loc 1 101 3 is_stmt 1 view .LVU84
 479 0004 0368     		ldr	r3, [r0]
 480 0006 33B1     		cbz	r3, .L51
 101:Core/Src/mgr_i2c.c **** 
 481              		.loc 1 101 3 is_stmt 0 discriminator 1 view .LVU85
 482 0008 8368     		ldr	r3, [r0, #8]
 483 000a 23B1     		cbz	r3, .L51
 101:Core/Src/mgr_i2c.c **** 
 484              		.loc 1 101 3 discriminator 2 view .LVU86
 485 000c 0379     		ldrb	r3, [r0, #4]	@ zero_extendqisi2
 486 000e 012B     		cmp	r3, #1
 487 0010 01D9     		bls	.L51
 101:Core/Src/mgr_i2c.c **** 
 488              		.loc 1 101 3 discriminator 3 view .LVU87
 489 0012 037B     		ldrb	r3, [r0, #12]	@ zero_extendqisi2
 490 0014 5BB9     		cbnz	r3, .L53
 491              	.L51:
 104:Core/Src/mgr_i2c.c **** 
 492              		.loc 1 104 3 is_stmt 1 view .LVU88
 493 0016 1022     		movs	r2, #16
 494 0018 0648     		ldr	r0, .L57
 495              	.LVL35:
 104:Core/Src/mgr_i2c.c **** 
 496              		.loc 1 104 3 is_stmt 0 view .LVU89
 497 001a FFF7FEFF 		bl	buf_write
 498              	.LVL36:
 104:Core/Src/mgr_i2c.c **** 
 499              		.loc 1 104 3 view .LVU90
 500 001e 0446     		mov	r4, r0
 501 0020 10B1     		cbz	r0, .L56
 502 0022 0124     		movs	r4, #1
ARM GAS  /tmp/cc35t6wd.s 			page 16


 503              	.L50:
 110:Core/Src/mgr_i2c.c **** 
 504              		.loc 1 110 1 view .LVU91
 505 0024 2046     		mov	r0, r4
 506 0026 10BD     		pop	{r4, pc}
 507              	.L56:
 107:Core/Src/mgr_i2c.c **** 
 508              		.loc 1 107 3 is_stmt 1 view .LVU92
 509 0028 FFF7FEFF 		bl	i2c_poll_fsm
 510              	.LVL37:
 109:Core/Src/mgr_i2c.c **** }
 511              		.loc 1 109 3 view .LVU93
 109:Core/Src/mgr_i2c.c **** }
 512              		.loc 1 109 10 is_stmt 0 view .LVU94
 513 002c FAE7     		b	.L50
 514              	.LVL38:
 515              	.L53:
 101:Core/Src/mgr_i2c.c **** 
 516              		.loc 1 101 3 view .LVU95
 517 002e 0124     		movs	r4, #1
 518 0030 F8E7     		b	.L50
 519              	.L58:
 520 0032 00BF     		.align	2
 521              	.L57:
 522 0034 00000000 		.word	.LANCHOR3
 523              		.cfi_endproc
 524              	.LFE66:
 526              		.section	.text.i2c_trig_state_trans,"ax",%progbits
 527              		.align	1
 528              		.global	i2c_trig_state_trans
 529              		.syntax unified
 530              		.thumb
 531              		.thumb_func
 533              	i2c_trig_state_trans:
 534              	.LFB78:
 244:Core/Src/mgr_i2c.c ****   static uint8_t idx;
 535              		.loc 1 244 1 is_stmt 1 view -0
 536              		.cfi_startproc
 537              		@ args = 0, pretend = 0, frame = 0
 538              		@ frame_needed = 0, uses_anonymous_args = 0
 539              		@ link register save eliminated.
 245:Core/Src/mgr_i2c.c **** 
 540              		.loc 1 245 3 view .LVU97
 250:Core/Src/mgr_i2c.c ****   {
 541              		.loc 1 250 3 view .LVU98
 250:Core/Src/mgr_i2c.c ****   {
 542              		.loc 1 250 12 is_stmt 0 view .LVU99
 543 0000 194B     		ldr	r3, .L66
 544 0002 0022     		movs	r2, #0
 545 0004 1A70     		strb	r2, [r3]
 250:Core/Src/mgr_i2c.c ****   {
 546              		.loc 1 250 3 view .LVU100
 547 0006 02E0     		b	.L60
 548              	.L61:
 250:Core/Src/mgr_i2c.c ****   {
 549              		.loc 1 250 38 is_stmt 1 discriminator 2 view .LVU101
 250:Core/Src/mgr_i2c.c ****   {
ARM GAS  /tmp/cc35t6wd.s 			page 17


 550              		.loc 1 250 41 is_stmt 0 discriminator 2 view .LVU102
 551 0008 0133     		adds	r3, r3, #1
 552 000a 174A     		ldr	r2, .L66
 553 000c 1370     		strb	r3, [r2]
 554              	.L60:
 250:Core/Src/mgr_i2c.c ****   {
 555              		.loc 1 250 17 is_stmt 1 discriminator 1 view .LVU103
 250:Core/Src/mgr_i2c.c ****   {
 556              		.loc 1 250 21 is_stmt 0 discriminator 1 view .LVU104
 557 000e 164B     		ldr	r3, .L66
 558 0010 1B78     		ldrb	r3, [r3]	@ zero_extendqisi2
 250:Core/Src/mgr_i2c.c ****   {
 559              		.loc 1 250 3 discriminator 1 view .LVU105
 560 0012 082B     		cmp	r3, #8
 561 0014 1AD8     		bhi	.L62
 252:Core/Src/mgr_i2c.c ****     {
 562              		.loc 1 252 5 is_stmt 1 view .LVU106
 252:Core/Src/mgr_i2c.c ****     {
 563              		.loc 1 252 24 is_stmt 0 view .LVU107
 564 0016 03EB4301 		add	r1, r3, r3, lsl #1
 565 001a 8A00     		lsls	r2, r1, #2
 566 001c 1349     		ldr	r1, .L66+4
 567 001e 8958     		ldr	r1, [r1, r2]
 252:Core/Src/mgr_i2c.c ****     {
 568              		.loc 1 252 38 view .LVU108
 569 0020 134A     		ldr	r2, .L66+8
 570 0022 1268     		ldr	r2, [r2]
 252:Core/Src/mgr_i2c.c ****     {
 571              		.loc 1 252 8 view .LVU109
 572 0024 9142     		cmp	r1, r2
 573 0026 EFD1     		bne	.L61
 252:Core/Src/mgr_i2c.c ****     {
 574              		.loc 1 252 70 discriminator 1 view .LVU110
 575 0028 03EB4302 		add	r2, r3, r3, lsl #1
 576 002c 9100     		lsls	r1, r2, #2
 577 002e 0F4A     		ldr	r2, .L66+4
 578 0030 0A44     		add	r2, r2, r1
 579 0032 5168     		ldr	r1, [r2, #4]
 252:Core/Src/mgr_i2c.c ****     {
 580              		.loc 1 252 75 discriminator 1 view .LVU111
 581 0034 0F4A     		ldr	r2, .L66+12
 582 0036 1278     		ldrb	r2, [r2]	@ zero_extendqisi2
 252:Core/Src/mgr_i2c.c ****     {
 583              		.loc 1 252 52 discriminator 1 view .LVU112
 584 0038 9142     		cmp	r1, r2
 585 003a E5D1     		bne	.L61
 254:Core/Src/mgr_i2c.c ****       break;
 586              		.loc 1 254 7 is_stmt 1 view .LVU113
 254:Core/Src/mgr_i2c.c ****       break;
 587              		.loc 1 254 33 is_stmt 0 view .LVU114
 588 003c 03EB4302 		add	r2, r3, r3, lsl #1
 589 0040 9100     		lsls	r1, r2, #2
 590 0042 0A4A     		ldr	r2, .L66+4
 591 0044 0A44     		add	r2, r2, r1
 592 0046 9168     		ldr	r1, [r2, #8]
 254:Core/Src/mgr_i2c.c ****       break;
 593              		.loc 1 254 17 view .LVU115
ARM GAS  /tmp/cc35t6wd.s 			page 18


 594 0048 094A     		ldr	r2, .L66+8
 595 004a 1160     		str	r1, [r2]
 255:Core/Src/mgr_i2c.c ****     }
 596              		.loc 1 255 7 is_stmt 1 view .LVU116
 597              	.L62:
 260:Core/Src/mgr_i2c.c ****   {
 598              		.loc 1 260 3 view .LVU117
 260:Core/Src/mgr_i2c.c ****   {
 599              		.loc 1 260 6 is_stmt 0 view .LVU118
 600 004c 082B     		cmp	r3, #8
 601 004e 03D8     		bhi	.L64
 260:Core/Src/mgr_i2c.c ****   {
 602              		.loc 1 260 44 discriminator 1 view .LVU119
 603 0050 084B     		ldr	r3, .L66+12
 604 0052 1B78     		ldrb	r3, [r3]	@ zero_extendqisi2
 260:Core/Src/mgr_i2c.c ****   {
 605              		.loc 1 260 30 discriminator 1 view .LVU120
 606 0054 092B     		cmp	r3, #9
 607 0056 02D1     		bne	.L65
 608              	.L64:
 262:Core/Src/mgr_i2c.c ****   }
 609              		.loc 1 262 5 is_stmt 1 view .LVU121
 262:Core/Src/mgr_i2c.c ****   }
 610              		.loc 1 262 15 is_stmt 0 view .LVU122
 611 0058 054B     		ldr	r3, .L66+8
 612 005a 074A     		ldr	r2, .L66+16
 613 005c 1A60     		str	r2, [r3]
 614              	.L65:
 266:Core/Src/mgr_i2c.c **** 
 615              		.loc 1 266 3 is_stmt 1 view .LVU123
 266:Core/Src/mgr_i2c.c **** 
 616              		.loc 1 266 18 is_stmt 0 view .LVU124
 617 005e 074B     		ldr	r3, .L66+20
 618 0060 0022     		movs	r2, #0
 619 0062 1A70     		strb	r2, [r3]
 270:Core/Src/mgr_i2c.c **** 
 620              		.loc 1 270 1 view .LVU125
 621 0064 7047     		bx	lr
 622              	.L67:
 623 0066 00BF     		.align	2
 624              	.L66:
 625 0068 00000000 		.word	.LANCHOR6
 626 006c 00000000 		.word	.LANCHOR7
 627 0070 00000000 		.word	.LANCHOR4
 628 0074 00000000 		.word	.LANCHOR8
 629 0078 00000000 		.word	i2c_state_error
 630 007c 00000000 		.word	.LANCHOR0
 631              		.cfi_endproc
 632              	.LFE78:
 634              		.section	.text.i2c_state_idle,"ax",%progbits
 635              		.align	1
 636              		.global	i2c_state_idle
 637              		.syntax unified
 638              		.thumb
 639              		.thumb_func
 641              	i2c_state_idle:
 642              	.LFB72:
ARM GAS  /tmp/cc35t6wd.s 			page 19


 164:Core/Src/mgr_i2c.c ****   /* Do something if buffer not empty */
 643              		.loc 1 164 1 is_stmt 1 view -0
 644              		.cfi_startproc
 645              		@ args = 0, pretend = 0, frame = 0
 646              		@ frame_needed = 0, uses_anonymous_args = 0
 647 0000 10B5     		push	{r4, lr}
 648              		.cfi_def_cfa_offset 8
 649              		.cfi_offset 4, -8
 650              		.cfi_offset 14, -4
 166:Core/Src/mgr_i2c.c ****   {
 651              		.loc 1 166 3 view .LVU127
 166:Core/Src/mgr_i2c.c ****   {
 652              		.loc 1 166 8 is_stmt 0 view .LVU128
 653 0002 0B48     		ldr	r0, .L72
 654 0004 FFF7FEFF 		bl	buf_is_empty
 655              	.LVL39:
 166:Core/Src/mgr_i2c.c ****   {
 656              		.loc 1 166 6 view .LVU129
 657 0008 00B1     		cbz	r0, .L71
 658              	.L68:
 177:Core/Src/mgr_i2c.c **** 
 659              		.loc 1 177 1 view .LVU130
 660 000a 10BD     		pop	{r4, pc}
 661              	.L71:
 169:Core/Src/mgr_i2c.c ****     bytes_to_send = msg_cur.n_send;
 662              		.loc 1 169 5 is_stmt 1 view .LVU131
 663 000c 094C     		ldr	r4, .L72+4
 664 000e 1022     		movs	r2, #16
 665 0010 2146     		mov	r1, r4
 666 0012 0748     		ldr	r0, .L72
 667 0014 FFF7FEFF 		bl	buf_read
 668              	.LVL40:
 170:Core/Src/mgr_i2c.c ****     bytes_to_recv = msg_cur.n_recv;
 669              		.loc 1 170 5 view .LVU132
 170:Core/Src/mgr_i2c.c ****     bytes_to_recv = msg_cur.n_recv;
 670              		.loc 1 170 28 is_stmt 0 view .LVU133
 671 0018 2279     		ldrb	r2, [r4, #4]	@ zero_extendqisi2
 170:Core/Src/mgr_i2c.c ****     bytes_to_recv = msg_cur.n_recv;
 672              		.loc 1 170 19 view .LVU134
 673 001a 074B     		ldr	r3, .L72+8
 674 001c 1A70     		strb	r2, [r3]
 171:Core/Src/mgr_i2c.c **** 
 675              		.loc 1 171 5 is_stmt 1 view .LVU135
 171:Core/Src/mgr_i2c.c **** 
 676              		.loc 1 171 28 is_stmt 0 view .LVU136
 677 001e 227B     		ldrb	r2, [r4, #12]	@ zero_extendqisi2
 171:Core/Src/mgr_i2c.c **** 
 678              		.loc 1 171 19 view .LVU137
 679 0020 064B     		ldr	r3, .L72+12
 680 0022 1A70     		strb	r2, [r3]
 174:Core/Src/mgr_i2c.c ****     i2c_trig_state_trans();
 681              		.loc 1 174 5 is_stmt 1 view .LVU138
 174:Core/Src/mgr_i2c.c ****     i2c_trig_state_trans();
 682              		.loc 1 174 14 is_stmt 0 view .LVU139
 683 0024 064B     		ldr	r3, .L72+16
 684 0026 0022     		movs	r2, #0
 685 0028 1A70     		strb	r2, [r3]
ARM GAS  /tmp/cc35t6wd.s 			page 20


 175:Core/Src/mgr_i2c.c ****   }
 686              		.loc 1 175 5 is_stmt 1 view .LVU140
 687 002a FFF7FEFF 		bl	i2c_trig_state_trans
 688              	.LVL41:
 177:Core/Src/mgr_i2c.c **** 
 689              		.loc 1 177 1 is_stmt 0 view .LVU141
 690 002e ECE7     		b	.L68
 691              	.L73:
 692              		.align	2
 693              	.L72:
 694 0030 00000000 		.word	.LANCHOR3
 695 0034 00000000 		.word	.LANCHOR9
 696 0038 00000000 		.word	.LANCHOR1
 697 003c 00000000 		.word	.LANCHOR2
 698 0040 00000000 		.word	.LANCHOR8
 699              		.cfi_endproc
 700              	.LFE72:
 702              		.section	.text.i2c_state_tx_data,"ax",%progbits
 703              		.align	1
 704              		.global	i2c_state_tx_data
 705              		.syntax unified
 706              		.thumb
 707              		.thumb_func
 709              	i2c_state_tx_data:
 710              	.LFB74:
 190:Core/Src/mgr_i2c.c ****   if (!state_executed)
 711              		.loc 1 190 1 is_stmt 1 view -0
 712              		.cfi_startproc
 713              		@ args = 0, pretend = 0, frame = 0
 714              		@ frame_needed = 0, uses_anonymous_args = 0
 715 0000 08B5     		push	{r3, lr}
 716              		.cfi_def_cfa_offset 8
 717              		.cfi_offset 3, -8
 718              		.cfi_offset 14, -4
 191:Core/Src/mgr_i2c.c ****   {
 719              		.loc 1 191 3 view .LVU143
 191:Core/Src/mgr_i2c.c ****   {
 720              		.loc 1 191 7 is_stmt 0 view .LVU144
 721 0002 0D4B     		ldr	r3, .L80
 722 0004 1B78     		ldrb	r3, [r3]	@ zero_extendqisi2
 191:Core/Src/mgr_i2c.c ****   {
 723              		.loc 1 191 6 view .LVU145
 724 0006 03B1     		cbz	r3, .L79
 725              	.L74:
 205:Core/Src/mgr_i2c.c **** 
 726              		.loc 1 205 1 view .LVU146
 727 0008 08BD     		pop	{r3, pc}
 728              	.L79:
 194:Core/Src/mgr_i2c.c ****     {
 729              		.loc 1 194 5 is_stmt 1 view .LVU147
 194:Core/Src/mgr_i2c.c ****     {
 730              		.loc 1 194 44 is_stmt 0 view .LVU148
 731 000a 0C4B     		ldr	r3, .L80+4
 732 000c 1868     		ldr	r0, [r3]
 194:Core/Src/mgr_i2c.c ****     {
 733              		.loc 1 194 25 view .LVU149
 734 000e 0C4B     		ldr	r3, .L80+8
ARM GAS  /tmp/cc35t6wd.s 			page 21


 735 0010 1B78     		ldrb	r3, [r3]	@ zero_extendqisi2
 736 0012 1844     		add	r0, r0, r3
 737 0014 FFF7FEFF 		bl	i2c1_send
 738              	.LVL42:
 194:Core/Src/mgr_i2c.c ****     {
 739              		.loc 1 194 8 view .LVU150
 740 0018 38B9     		cbnz	r0, .L76
 196:Core/Src/mgr_i2c.c ****     }
 741              		.loc 1 196 7 is_stmt 1 view .LVU151
 196:Core/Src/mgr_i2c.c ****     }
 742              		.loc 1 196 20 is_stmt 0 view .LVU152
 743 001a 094A     		ldr	r2, .L80+8
 744 001c 1378     		ldrb	r3, [r2]	@ zero_extendqisi2
 745 001e 013B     		subs	r3, r3, #1
 746 0020 1370     		strb	r3, [r2]
 747              	.L77:
 203:Core/Src/mgr_i2c.c ****   }
 748              		.loc 1 203 5 is_stmt 1 view .LVU153
 203:Core/Src/mgr_i2c.c ****   }
 749              		.loc 1 203 20 is_stmt 0 view .LVU154
 750 0022 054B     		ldr	r3, .L80
 751 0024 0122     		movs	r2, #1
 752 0026 1A70     		strb	r2, [r3]
 205:Core/Src/mgr_i2c.c **** 
 753              		.loc 1 205 1 view .LVU155
 754 0028 EEE7     		b	.L74
 755              	.L76:
 200:Core/Src/mgr_i2c.c ****       i2c_trig_state_trans();
 756              		.loc 1 200 7 is_stmt 1 view .LVU156
 200:Core/Src/mgr_i2c.c ****       i2c_trig_state_trans();
 757              		.loc 1 200 16 is_stmt 0 view .LVU157
 758 002a 064B     		ldr	r3, .L80+12
 759 002c 0922     		movs	r2, #9
 760 002e 1A70     		strb	r2, [r3]
 201:Core/Src/mgr_i2c.c ****     }
 761              		.loc 1 201 7 is_stmt 1 view .LVU158
 762 0030 FFF7FEFF 		bl	i2c_trig_state_trans
 763              	.LVL43:
 764 0034 F5E7     		b	.L77
 765              	.L81:
 766 0036 00BF     		.align	2
 767              	.L80:
 768 0038 00000000 		.word	.LANCHOR0
 769 003c 00000000 		.word	.LANCHOR9
 770 0040 00000000 		.word	.LANCHOR1
 771 0044 00000000 		.word	.LANCHOR8
 772              		.cfi_endproc
 773              	.LFE74:
 775              		.section	.text.i2c_state_rx_data,"ax",%progbits
 776              		.align	1
 777              		.global	i2c_state_rx_data
 778              		.syntax unified
 779              		.thumb
 780              		.thumb_func
 782              	i2c_state_rx_data:
 783              	.LFB75:
 208:Core/Src/mgr_i2c.c ****   if (!state_executed)
ARM GAS  /tmp/cc35t6wd.s 			page 22


 784              		.loc 1 208 1 view -0
 785              		.cfi_startproc
 786              		@ args = 0, pretend = 0, frame = 0
 787              		@ frame_needed = 0, uses_anonymous_args = 0
 788 0000 08B5     		push	{r3, lr}
 789              		.cfi_def_cfa_offset 8
 790              		.cfi_offset 3, -8
 791              		.cfi_offset 14, -4
 209:Core/Src/mgr_i2c.c ****   {
 792              		.loc 1 209 3 view .LVU160
 209:Core/Src/mgr_i2c.c ****   {
 793              		.loc 1 209 7 is_stmt 0 view .LVU161
 794 0002 114B     		ldr	r3, .L89
 795 0004 1B78     		ldrb	r3, [r3]	@ zero_extendqisi2
 209:Core/Src/mgr_i2c.c ****   {
 796              		.loc 1 209 6 view .LVU162
 797 0006 03B1     		cbz	r3, .L88
 798              	.L82:
 230:Core/Src/mgr_i2c.c **** 
 799              		.loc 1 230 1 view .LVU163
 800 0008 08BD     		pop	{r3, pc}
 801              	.L88:
 211:Core/Src/mgr_i2c.c ****     {
 802              		.loc 1 211 5 is_stmt 1 view .LVU164
 211:Core/Src/mgr_i2c.c ****     {
 803              		.loc 1 211 44 is_stmt 0 view .LVU165
 804 000a 104B     		ldr	r3, .L89+4
 805 000c 9868     		ldr	r0, [r3, #8]
 211:Core/Src/mgr_i2c.c ****     {
 806              		.loc 1 211 66 view .LVU166
 807 000e 1B7B     		ldrb	r3, [r3, #12]	@ zero_extendqisi2
 211:Core/Src/mgr_i2c.c ****     {
 808              		.loc 1 211 74 view .LVU167
 809 0010 0F4A     		ldr	r2, .L89+8
 810 0012 1278     		ldrb	r2, [r2]	@ zero_extendqisi2
 811 0014 9B1A     		subs	r3, r3, r2
 211:Core/Src/mgr_i2c.c ****     {
 812              		.loc 1 211 25 view .LVU168
 813 0016 1844     		add	r0, r0, r3
 814 0018 FFF7FEFF 		bl	i2c1_recv
 815              	.LVL44:
 211:Core/Src/mgr_i2c.c ****     {
 816              		.loc 1 211 8 view .LVU169
 817 001c 70B9     		cbnz	r0, .L84
 213:Core/Src/mgr_i2c.c ****       if (bytes_to_recv)
 818              		.loc 1 213 7 is_stmt 1 view .LVU170
 213:Core/Src/mgr_i2c.c ****       if (bytes_to_recv)
 819              		.loc 1 213 20 is_stmt 0 view .LVU171
 820 001e 0C4A     		ldr	r2, .L89+8
 821 0020 1378     		ldrb	r3, [r2]	@ zero_extendqisi2
 822 0022 013B     		subs	r3, r3, #1
 823 0024 DBB2     		uxtb	r3, r3
 824 0026 1370     		strb	r3, [r2]
 214:Core/Src/mgr_i2c.c ****       {
 825              		.loc 1 214 7 is_stmt 1 view .LVU172
 214:Core/Src/mgr_i2c.c ****       {
 826              		.loc 1 214 10 is_stmt 0 view .LVU173
ARM GAS  /tmp/cc35t6wd.s 			page 23


 827 0028 2BB1     		cbz	r3, .L85
 216:Core/Src/mgr_i2c.c ****       }
 828              		.loc 1 216 9 is_stmt 1 view .LVU174
 829 002a FFF7FEFF 		bl	i2c1_nack_bit
 830              	.LVL45:
 831              	.L86:
 228:Core/Src/mgr_i2c.c ****   }
 832              		.loc 1 228 5 view .LVU175
 228:Core/Src/mgr_i2c.c ****   }
 833              		.loc 1 228 20 is_stmt 0 view .LVU176
 834 002e 064B     		ldr	r3, .L89
 835 0030 0122     		movs	r2, #1
 836 0032 1A70     		strb	r2, [r3]
 230:Core/Src/mgr_i2c.c **** 
 837              		.loc 1 230 1 view .LVU177
 838 0034 E8E7     		b	.L82
 839              	.L85:
 220:Core/Src/mgr_i2c.c ****       }
 840              		.loc 1 220 9 is_stmt 1 view .LVU178
 841 0036 FFF7FEFF 		bl	i2c1_ack_bit
 842              	.LVL46:
 843 003a F8E7     		b	.L86
 844              	.L84:
 225:Core/Src/mgr_i2c.c ****       i2c_trig_state_trans();
 845              		.loc 1 225 7 view .LVU179
 225:Core/Src/mgr_i2c.c ****       i2c_trig_state_trans();
 846              		.loc 1 225 16 is_stmt 0 view .LVU180
 847 003c 054B     		ldr	r3, .L89+12
 848 003e 0922     		movs	r2, #9
 849 0040 1A70     		strb	r2, [r3]
 226:Core/Src/mgr_i2c.c ****     }
 850              		.loc 1 226 7 is_stmt 1 view .LVU181
 851 0042 FFF7FEFF 		bl	i2c_trig_state_trans
 852              	.LVL47:
 853 0046 F2E7     		b	.L86
 854              	.L90:
 855              		.align	2
 856              	.L89:
 857 0048 00000000 		.word	.LANCHOR0
 858 004c 00000000 		.word	.LANCHOR9
 859 0050 00000000 		.word	.LANCHOR2
 860 0054 00000000 		.word	.LANCHOR8
 861              		.cfi_endproc
 862              	.LFE75:
 864              		.section	.text.i2c_event_callback,"ax",%progbits
 865              		.align	1
 866              		.global	i2c_event_callback
 867              		.syntax unified
 868              		.thumb
 869              		.thumb_func
 871              	i2c_event_callback:
 872              	.LFB79:
 273:Core/Src/mgr_i2c.c ****   /* Figure out what happened */
 873              		.loc 1 273 1 view -0
 874              		.cfi_startproc
 875              		@ args = 0, pretend = 0, frame = 0
 876              		@ frame_needed = 0, uses_anonymous_args = 0
ARM GAS  /tmp/cc35t6wd.s 			page 24


 877 0000 08B5     		push	{r3, lr}
 878              		.cfi_def_cfa_offset 8
 879              		.cfi_offset 3, -8
 880              		.cfi_offset 14, -4
 275:Core/Src/mgr_i2c.c **** 
 881              		.loc 1 275 3 view .LVU183
 275:Core/Src/mgr_i2c.c **** 
 882              		.loc 1 275 14 is_stmt 0 view .LVU184
 883 0002 FFF7FEFF 		bl	i2c1_get_last_event
 884              	.LVL48:
 885 0006 FFF7FEFF 		bl	i2c_decode_i2c1_event
 886              	.LVL49:
 275:Core/Src/mgr_i2c.c **** 
 887              		.loc 1 275 12 view .LVU185
 888 000a 044B     		ldr	r3, .L93
 889 000c 1870     		strb	r0, [r3]
 278:Core/Src/mgr_i2c.c ****   cur_state();
 890              		.loc 1 278 3 is_stmt 1 view .LVU186
 891 000e FFF7FEFF 		bl	i2c_trig_state_trans
 892              	.LVL50:
 279:Core/Src/mgr_i2c.c **** 
 893              		.loc 1 279 3 view .LVU187
 894 0012 034B     		ldr	r3, .L93+4
 895 0014 1B68     		ldr	r3, [r3]
 896 0016 9847     		blx	r3
 897              	.LVL51:
 284:Core/Src/mgr_i2c.c **** 
 898              		.loc 1 284 1 is_stmt 0 view .LVU188
 899 0018 08BD     		pop	{r3, pc}
 900              	.L94:
 901 001a 00BF     		.align	2
 902              	.L93:
 903 001c 00000000 		.word	.LANCHOR8
 904 0020 00000000 		.word	.LANCHOR4
 905              		.cfi_endproc
 906              	.LFE79:
 908              		.section	.bss.bytes_to_recv,"aw",%nobits
 909              		.set	.LANCHOR2,. + 0
 912              	bytes_to_recv:
 913 0000 00       		.space	1
 914              		.section	.bss.bytes_to_send,"aw",%nobits
 915              		.set	.LANCHOR1,. + 0
 918              	bytes_to_send:
 919 0000 00       		.space	1
 920              		.section	.bss.cur_state,"aw",%nobits
 921              		.align	2
 922              		.set	.LANCHOR4,. + 0
 925              	cur_state:
 926 0000 00000000 		.space	4
 927              		.section	.bss.idx.0,"aw",%nobits
 928              		.set	.LANCHOR6,. + 0
 931              	idx.0:
 932 0000 00       		.space	1
 933              		.section	.bss.last_evt,"aw",%nobits
 934              		.set	.LANCHOR8,. + 0
 937              	last_evt:
 938 0000 00       		.space	1
ARM GAS  /tmp/cc35t6wd.s 			page 25


 939              		.section	.bss.msg_buf,"aw",%nobits
 940              		.align	2
 941              		.set	.LANCHOR3,. + 0
 944              	msg_buf:
 945 0000 00000000 		.space	20
 945      00000000 
 945      00000000 
 945      00000000 
 945      00000000 
 946              		.section	.bss.msg_buf_data,"aw",%nobits
 947              		.align	2
 948              		.set	.LANCHOR5,. + 0
 951              	msg_buf_data:
 952 0000 00000000 		.space	240
 952      00000000 
 952      00000000 
 952      00000000 
 952      00000000 
 953              		.section	.bss.msg_cur,"aw",%nobits
 954              		.align	2
 955              		.set	.LANCHOR9,. + 0
 958              	msg_cur:
 959 0000 00000000 		.space	16
 959      00000000 
 959      00000000 
 959      00000000 
 960              		.section	.bss.state_executed,"aw",%nobits
 961              		.set	.LANCHOR0,. + 0
 964              	state_executed:
 965 0000 00       		.space	1
 966              		.section	.rodata.TRANS_TAB,"a"
 967              		.align	2
 968              		.set	.LANCHOR7,. + 0
 971              	TRANS_TAB:
 972 0000 00000000 		.word	i2c_state_idle
 973 0004 00000000 		.word	0
 974 0008 00000000 		.word	i2c_state_start_bit
 975 000c 00000000 		.word	i2c_state_start_bit
 976 0010 01000000 		.word	1
 977 0014 00000000 		.word	i2c_state_tx_data
 978 0018 00000000 		.word	i2c_state_tx_data
 979 001c 04000000 		.word	4
 980 0020 00000000 		.word	i2c_state_tx_data
 981 0024 00000000 		.word	i2c_state_tx_data
 982 0028 06000000 		.word	6
 983 002c 00000000 		.word	i2c_state_start_bit
 984 0030 00000000 		.word	i2c_state_start_bit
 985 0034 02000000 		.word	2
 986 0038 00000000 		.word	i2c_state_rx_data
 987 003c 00000000 		.word	i2c_state_tx_data
 988 0040 05000000 		.word	5
 989 0044 00000000 		.word	i2c_state_stop_bit
 990 0048 00000000 		.word	i2c_state_rx_data
 991 004c 07000000 		.word	7
 992 0050 00000000 		.word	i2c_state_rx_data
 993 0054 00000000 		.word	i2c_state_rx_data
 994 0058 08000000 		.word	8
ARM GAS  /tmp/cc35t6wd.s 			page 26


 995 005c 00000000 		.word	i2c_state_stop_bit
 996 0060 00000000 		.word	i2c_state_stop_bit
 997 0064 03000000 		.word	3
 998 0068 00000000 		.word	i2c_state_idle
 999              		.text
 1000              	.Letext0:
 1001              		.file 2 "/home/callum/.config/Code/User/globalStorage/bmd.stm32-for-vscode/@xpack-dev-tools/arm-no
 1002              		.file 3 "/home/callum/.config/Code/User/globalStorage/bmd.stm32-for-vscode/@xpack-dev-tools/arm-no
 1003              		.file 4 "/home/callum/.config/Code/User/globalStorage/bmd.stm32-for-vscode/@xpack-dev-tools/arm-no
 1004              		.file 5 "Core/Inc/util_buffer.h"
 1005              		.file 6 "Core/Inc/util_fsm.h"
 1006              		.file 7 "Core/Inc/hw_i2c1.h"
 1007              		.file 8 "Core/Inc/mgr_i2c.h"
ARM GAS  /tmp/cc35t6wd.s 			page 27


DEFINED SYMBOLS
                            *ABS*:0000000000000000 mgr_i2c.c
     /tmp/cc35t6wd.s:18     .text.i2c_state_error:0000000000000000 $t
     /tmp/cc35t6wd.s:24     .text.i2c_state_error:0000000000000000 i2c_state_error
     /tmp/cc35t6wd.s:42     .text.i2c_error_callback:0000000000000000 $t
     /tmp/cc35t6wd.s:48     .text.i2c_error_callback:0000000000000000 i2c_error_callback
     /tmp/cc35t6wd.s:66     .text.i2c_state_start_bit:0000000000000000 $t
     /tmp/cc35t6wd.s:72     .text.i2c_state_start_bit:0000000000000000 i2c_state_start_bit
     /tmp/cc35t6wd.s:105    .text.i2c_state_start_bit:0000000000000018 $d
     /tmp/cc35t6wd.s:110    .text.i2c_state_stop_bit:0000000000000000 $t
     /tmp/cc35t6wd.s:116    .text.i2c_state_stop_bit:0000000000000000 i2c_state_stop_bit
     /tmp/cc35t6wd.s:135    .text.i2c_decode_i2c1_event:0000000000000000 $t
     /tmp/cc35t6wd.s:141    .text.i2c_decode_i2c1_event:0000000000000000 i2c_decode_i2c1_event
     /tmp/cc35t6wd.s:261    .text.i2c_decode_i2c1_event:0000000000000058 $d
     /tmp/cc35t6wd.s:267    .text.i2c_reset:0000000000000000 $t
     /tmp/cc35t6wd.s:273    .text.i2c_reset:0000000000000000 i2c_reset
     /tmp/cc35t6wd.s:300    .text.i2c_reset:0000000000000014 $d
     /tmp/cc35t6wd.s:306    .text.i2c_enable:0000000000000000 $t
     /tmp/cc35t6wd.s:312    .text.i2c_enable:0000000000000000 i2c_enable
     /tmp/cc35t6wd.s:331    .text.i2c_init:0000000000000000 $t
     /tmp/cc35t6wd.s:337    .text.i2c_init:0000000000000000 i2c_init
     /tmp/cc35t6wd.s:393    .text.i2c_init:000000000000003c $d
     /tmp/cc35t6wd.s:641    .text.i2c_state_idle:0000000000000000 i2c_state_idle
     /tmp/cc35t6wd.s:871    .text.i2c_event_callback:0000000000000000 i2c_event_callback
     /tmp/cc35t6wd.s:403    .text.i2c_disable:0000000000000000 $t
     /tmp/cc35t6wd.s:409    .text.i2c_disable:0000000000000000 i2c_disable
     /tmp/cc35t6wd.s:428    .text.i2c_poll_fsm:0000000000000000 $t
     /tmp/cc35t6wd.s:434    .text.i2c_poll_fsm:0000000000000000 i2c_poll_fsm
     /tmp/cc35t6wd.s:454    .text.i2c_poll_fsm:000000000000000c $d
     /tmp/cc35t6wd.s:459    .text.i2c_queue_msg:0000000000000000 $t
     /tmp/cc35t6wd.s:465    .text.i2c_queue_msg:0000000000000000 i2c_queue_msg
     /tmp/cc35t6wd.s:522    .text.i2c_queue_msg:0000000000000034 $d
     /tmp/cc35t6wd.s:527    .text.i2c_trig_state_trans:0000000000000000 $t
     /tmp/cc35t6wd.s:533    .text.i2c_trig_state_trans:0000000000000000 i2c_trig_state_trans
     /tmp/cc35t6wd.s:625    .text.i2c_trig_state_trans:0000000000000068 $d
     /tmp/cc35t6wd.s:635    .text.i2c_state_idle:0000000000000000 $t
     /tmp/cc35t6wd.s:694    .text.i2c_state_idle:0000000000000030 $d
     /tmp/cc35t6wd.s:703    .text.i2c_state_tx_data:0000000000000000 $t
     /tmp/cc35t6wd.s:709    .text.i2c_state_tx_data:0000000000000000 i2c_state_tx_data
     /tmp/cc35t6wd.s:768    .text.i2c_state_tx_data:0000000000000038 $d
     /tmp/cc35t6wd.s:776    .text.i2c_state_rx_data:0000000000000000 $t
     /tmp/cc35t6wd.s:782    .text.i2c_state_rx_data:0000000000000000 i2c_state_rx_data
     /tmp/cc35t6wd.s:857    .text.i2c_state_rx_data:0000000000000048 $d
     /tmp/cc35t6wd.s:865    .text.i2c_event_callback:0000000000000000 $t
     /tmp/cc35t6wd.s:903    .text.i2c_event_callback:000000000000001c $d
     /tmp/cc35t6wd.s:912    .bss.bytes_to_recv:0000000000000000 bytes_to_recv
     /tmp/cc35t6wd.s:913    .bss.bytes_to_recv:0000000000000000 $d
     /tmp/cc35t6wd.s:918    .bss.bytes_to_send:0000000000000000 bytes_to_send
     /tmp/cc35t6wd.s:919    .bss.bytes_to_send:0000000000000000 $d
     /tmp/cc35t6wd.s:921    .bss.cur_state:0000000000000000 $d
     /tmp/cc35t6wd.s:925    .bss.cur_state:0000000000000000 cur_state
     /tmp/cc35t6wd.s:931    .bss.idx.0:0000000000000000 idx.0
     /tmp/cc35t6wd.s:932    .bss.idx.0:0000000000000000 $d
     /tmp/cc35t6wd.s:937    .bss.last_evt:0000000000000000 last_evt
     /tmp/cc35t6wd.s:938    .bss.last_evt:0000000000000000 $d
     /tmp/cc35t6wd.s:940    .bss.msg_buf:0000000000000000 $d
     /tmp/cc35t6wd.s:944    .bss.msg_buf:0000000000000000 msg_buf
ARM GAS  /tmp/cc35t6wd.s 			page 28


     /tmp/cc35t6wd.s:947    .bss.msg_buf_data:0000000000000000 $d
     /tmp/cc35t6wd.s:951    .bss.msg_buf_data:0000000000000000 msg_buf_data
     /tmp/cc35t6wd.s:954    .bss.msg_cur:0000000000000000 $d
     /tmp/cc35t6wd.s:958    .bss.msg_cur:0000000000000000 msg_cur
     /tmp/cc35t6wd.s:964    .bss.state_executed:0000000000000000 state_executed
     /tmp/cc35t6wd.s:965    .bss.state_executed:0000000000000000 $d
     /tmp/cc35t6wd.s:967    .rodata.TRANS_TAB:0000000000000000 $d
     /tmp/cc35t6wd.s:971    .rodata.TRANS_TAB:0000000000000000 TRANS_TAB

UNDEFINED SYMBOLS
i2c1_start
i2c1_stop
i2c1_reset_periph
buf_reset
i2c1_enable_periph
i2c1_init
i2c1_set_evt_callback
i2c1_set_err_callback
buf_init
i2c1_disable_periph
buf_write
buf_is_empty
buf_read
i2c1_send
i2c1_recv
i2c1_nack_bit
i2c1_ack_bit
i2c1_get_last_event
