ARM GAS  C:\Users\Callum\AppData\Local\Temp\cc2Eapq0.s 			page 1


   1              		.cpu cortex-m3
   2              		.arch armv7-m
   3              		.fpu softvfp
   4              		.eabi_attribute 20, 1
   5              		.eabi_attribute 21, 1
   6              		.eabi_attribute 23, 3
   7              		.eabi_attribute 24, 1
   8              		.eabi_attribute 25, 1
   9              		.eabi_attribute 26, 1
  10              		.eabi_attribute 30, 1
  11              		.eabi_attribute 34, 1
  12              		.eabi_attribute 18, 4
  13              		.file	"mgr_hv.c"
  14              		.text
  15              	.Ltext0:
  16              		.cfi_sections	.debug_frame
  17              		.file 1 "Core/Src/mgr_hv.c"
  18              		.section	.text.hv_init,"ax",%progbits
  19              		.align	1
  20              		.global	hv_init
  21              		.syntax unified
  22              		.thumb
  23              		.thumb_func
  25              	hv_init:
  26              	.LFB65:
   1:Core/Src/mgr_hv.c **** /**
   2:Core/Src/mgr_hv.c ****  * @file mgr_heartbeat.h
   3:Core/Src/mgr_hv.c ****  * @author your name (you@domain.com)
   4:Core/Src/mgr_hv.c ****  * @brief manager for the hearbeat LED. Assumed active high LED
   5:Core/Src/mgr_hv.c ****  * @version 0.1
   6:Core/Src/mgr_hv.c ****  * @date 2022-05-05
   7:Core/Src/mgr_hv.c ****  *
   8:Core/Src/mgr_hv.c ****  * @copyright Copyright (c) 2022
   9:Core/Src/mgr_hv.c ****  *
  10:Core/Src/mgr_hv.c ****  */
  11:Core/Src/mgr_hv.c **** 
  12:Core/Src/mgr_hv.c **** #include "mgr_hv.h"
  13:Core/Src/mgr_hv.c **** 
  14:Core/Src/mgr_hv.c **** /* Files required variables */
  15:Core/Src/mgr_hv.c **** 
  16:Core/Src/mgr_hv.c **** static stmgpio_t hv_en_gpio;
  17:Core/Src/mgr_hv.c **** 
  18:Core/Src/mgr_hv.c **** volatile static bool hv_is_active;
  19:Core/Src/mgr_hv.c **** 
  20:Core/Src/mgr_hv.c **** int hv_init(void)
  21:Core/Src/mgr_hv.c **** {
  27              		.loc 1 21 1 view -0
  28              		.cfi_startproc
  29              		@ args = 0, pretend = 0, frame = 0
  30              		@ frame_needed = 0, uses_anonymous_args = 0
  31 0000 08B5     		push	{r3, lr}
  32              		.cfi_def_cfa_offset 8
  33              		.cfi_offset 3, -8
  34              		.cfi_offset 14, -4
  22:Core/Src/mgr_hv.c ****     hv_en_gpio.port = HV_EN_PORT;
  35              		.loc 1 22 5 view .LVU1
  36              		.loc 1 22 21 is_stmt 0 view .LVU2
ARM GAS  C:\Users\Callum\AppData\Local\Temp\cc2Eapq0.s 			page 2


  37 0002 0748     		ldr	r0, .L4
  38 0004 4323     		movs	r3, #67
  39 0006 0371     		strb	r3, [r0, #4]
  23:Core/Src/mgr_hv.c ****     hv_en_gpio.pin = HV_EN_PIN;
  40              		.loc 1 23 5 is_stmt 1 view .LVU3
  41              		.loc 1 23 20 is_stmt 0 view .LVU4
  42 0008 0323     		movs	r3, #3
  43 000a 4371     		strb	r3, [r0, #5]
  24:Core/Src/mgr_hv.c ****     hv_en_gpio.cfg = OUT_PUSHPULL;
  44              		.loc 1 24 5 is_stmt 1 view .LVU5
  45              		.loc 1 24 20 is_stmt 0 view .LVU6
  46 000c 0423     		movs	r3, #4
  47 000e C370     		strb	r3, [r0, #3]
  25:Core/Src/mgr_hv.c ****     hv_en_gpio.dir = OUTPUT_2MHZ;
  48              		.loc 1 25 5 is_stmt 1 view .LVU7
  49              		.loc 1 25 20 is_stmt 0 view .LVU8
  50 0010 0223     		movs	r3, #2
  51 0012 4370     		strb	r3, [r0, #1]
  26:Core/Src/mgr_hv.c **** 
  27:Core/Src/mgr_hv.c ****     if (EXIT_FAILURE == stmgpio_setup(&hv_en_gpio)){
  52              		.loc 1 27 5 is_stmt 1 view .LVU9
  53              		.loc 1 27 25 is_stmt 0 view .LVU10
  54 0014 FFF7FEFF 		bl	stmgpio_setup
  55              	.LVL0:
  56              		.loc 1 27 8 view .LVU11
  57 0018 0128     		cmp	r0, #1
  58 001a 00D0     		beq	.L1
  28:Core/Src/mgr_hv.c ****         return EXIT_FAILURE;
  29:Core/Src/mgr_hv.c ****     }
  30:Core/Src/mgr_hv.c **** 
  31:Core/Src/mgr_hv.c ****     return EXIT_SUCCESS;
  59              		.loc 1 31 12 view .LVU12
  60 001c 0020     		movs	r0, #0
  61              	.L1:
  32:Core/Src/mgr_hv.c **** }
  62              		.loc 1 32 1 view .LVU13
  63 001e 08BD     		pop	{r3, pc}
  64              	.L5:
  65              		.align	2
  66              	.L4:
  67 0020 00000000 		.word	hv_en_gpio
  68              		.cfi_endproc
  69              	.LFE65:
  71              		.section	.text.hv_rail_enable,"ax",%progbits
  72              		.align	1
  73              		.global	hv_rail_enable
  74              		.syntax unified
  75              		.thumb
  76              		.thumb_func
  78              	hv_rail_enable:
  79              	.LVL1:
  80              	.LFB66:
  33:Core/Src/mgr_hv.c **** 
  34:Core/Src/mgr_hv.c **** void hv_rail_enable(uint8_t bout_num)
  35:Core/Src/mgr_hv.c **** {
  81              		.loc 1 35 1 is_stmt 1 view -0
  82              		.cfi_startproc
ARM GAS  C:\Users\Callum\AppData\Local\Temp\cc2Eapq0.s 			page 3


  83              		@ args = 0, pretend = 0, frame = 0
  84              		@ frame_needed = 0, uses_anonymous_args = 0
  85              		@ link register save eliminated.
  36:Core/Src/mgr_hv.c ****     
  37:Core/Src/mgr_hv.c **** }
  86              		.loc 1 37 1 view .LVU15
  87 0000 7047     		bx	lr
  88              		.cfi_endproc
  89              	.LFE66:
  91              		.section	.text.hv_rail_disable,"ax",%progbits
  92              		.align	1
  93              		.global	hv_rail_disable
  94              		.syntax unified
  95              		.thumb
  96              		.thumb_func
  98              	hv_rail_disable:
  99              	.LVL2:
 100              	.LFB67:
  38:Core/Src/mgr_hv.c **** 
  39:Core/Src/mgr_hv.c **** void hv_rail_disable(uint8_t bout_num)
  40:Core/Src/mgr_hv.c **** {
 101              		.loc 1 40 1 view -0
 102              		.cfi_startproc
 103              		@ args = 0, pretend = 0, frame = 0
 104              		@ frame_needed = 0, uses_anonymous_args = 0
 105              		@ link register save eliminated.
  41:Core/Src/mgr_hv.c ****     
  42:Core/Src/mgr_hv.c **** }...
 106              		.loc 1 42 1 view .LVU17
 107 0000 7047     		bx	lr
 108              		.cfi_endproc
 109              	.LFE67:
 111              		.section	.bss.hv_is_active,"aw",%nobits
 114              	hv_is_active:
 115 0000 00       		.space	1
 116              		.section	.bss.hv_en_gpio,"aw",%nobits
 117              		.align	2
 120              	hv_en_gpio:
 121 0000 00000000 		.space	12
 121      00000000 
 121      00000000 
 122              		.text
 123              	.Letext0:
 124              		.file 2 "c:\\users\\callum\\appdata\\roaming\\code\\user\\globalstorage\\bmd.stm32-for-vscode\\@xp
 125              		.file 3 "c:\\users\\callum\\appdata\\roaming\\code\\user\\globalstorage\\bmd.stm32-for-vscode\\@xp
 126              		.file 4 "Drivers/CMSIS/Device/ST/STM32F1xx/Include/stm32f103xb.h"
 127              		.file 5 "Core/Inc/hw_stmgpio.h"
ARM GAS  C:\Users\Callum\AppData\Local\Temp\cc2Eapq0.s 			page 4

