ARM GAS  C:\Users\Callum\AppData\Local\Temp\ccZHZ9FM.s 			page 1


   1              		.cpu cortex-m3
   2              		.arch armv7-m
   3              		.fpu softvfp
   4              		.eabi_attribute 20, 1
   5              		.eabi_attribute 21, 1
   6              		.eabi_attribute 23, 3
   7              		.eabi_attribute 24, 1
   8              		.eabi_attribute 25, 1
   9              		.eabi_attribute 26, 1
  10              		.eabi_attribute 30, 1
  11              		.eabi_attribute 34, 1
  12              		.eabi_attribute 18, 4
  13              		.file	"mgr_bout.c"
  14              		.text
  15              	.Ltext0:
  16              		.cfi_sections	.debug_frame
  17              		.file 1 "Core/Src/mgr_bout.c"
  18              		.section	.text.bout_tick_callback,"ax",%progbits
  19              		.align	1
  20              		.global	bout_tick_callback
  21              		.syntax unified
  22              		.thumb
  23              		.thumb_func
  25              	bout_tick_callback:
  26              	.LFB72:
   1:Core/Src/mgr_bout.c **** /**
   2:Core/Src/mgr_bout.c ****  * @file mgr_heartbeat.h
   3:Core/Src/mgr_bout.c ****  * @author your name (you@domain.com)
   4:Core/Src/mgr_bout.c ****  * @brief manager for the hearbeat LED. Assumed active high LED
   5:Core/Src/mgr_bout.c ****  * @version 0.1
   6:Core/Src/mgr_bout.c ****  * @date 2022-05-05
   7:Core/Src/mgr_bout.c ****  *
   8:Core/Src/mgr_bout.c ****  * @copyright Copyright (c) 2022
   9:Core/Src/mgr_bout.c ****  *
  10:Core/Src/mgr_bout.c ****  */
  11:Core/Src/mgr_bout.c **** 
  12:Core/Src/mgr_bout.c **** #include "mgr_bout.h"
  13:Core/Src/mgr_bout.c **** 
  14:Core/Src/mgr_bout.c **** /* Files required variables */
  15:Core/Src/mgr_bout.c **** 
  16:Core/Src/mgr_bout.c **** static const char bout_gpio_ports[BOUT_CNT] = {PORT_BOUT_0,PORT_BOUT_1,PORT_BOUT_2,PORT_BOUT_3,PORT
  17:Core/Src/mgr_bout.c **** 
  18:Core/Src/mgr_bout.c **** static const uint8_t bout_gpio_pins[BOUT_CNT] = {PIN_BOUT_0,PIN_BOUT_1,PIN_BOUT_2,PIN_BOUT_3,PIN_BO
  19:Core/Src/mgr_bout.c **** 
  20:Core/Src/mgr_bout.c **** static stmgpio_t bout_gpio[BOUT_CNT];
  21:Core/Src/mgr_bout.c **** 
  22:Core/Src/mgr_bout.c **** volatile static uint8_t callback_cnt;
  23:Core/Src/mgr_bout.c **** 
  24:Core/Src/mgr_bout.c **** volatile static bool bouts_is_active;
  25:Core/Src/mgr_bout.c **** 
  26:Core/Src/mgr_bout.c **** int bout_init(void)
  27:Core/Src/mgr_bout.c **** {
  28:Core/Src/mgr_bout.c ****     uint8_t idx;
  29:Core/Src/mgr_bout.c **** 
  30:Core/Src/mgr_bout.c ****     /* set up each of the gpio */
  31:Core/Src/mgr_bout.c ****     for (idx = 0; idx < BOUT_CNT; idx++) {
  32:Core/Src/mgr_bout.c ****         bout_gpio[idx].port = bout_gpio_ports[idx];
ARM GAS  C:\Users\Callum\AppData\Local\Temp\ccZHZ9FM.s 			page 2


  33:Core/Src/mgr_bout.c ****         bout_gpio[idx].pin = bout_gpio_pins[idx];
  34:Core/Src/mgr_bout.c ****         bout_gpio[idx].cfg = OUT_PUSHPULL;
  35:Core/Src/mgr_bout.c ****         bout_gpio[idx].dir = OUTPUT_2MHZ;
  36:Core/Src/mgr_bout.c ****         ASSERT_INT(stmgpio_setup(&bout_gpio[idx]));
  37:Core/Src/mgr_bout.c ****     }
  38:Core/Src/mgr_bout.c **** 
  39:Core/Src/mgr_bout.c ****     /* Setup callback for system tick */
  40:Core/Src/mgr_bout.c ****     hw_systick_add_callback(bout_tick_callback);
  41:Core/Src/mgr_bout.c **** 
  42:Core/Src/mgr_bout.c ****     /* Defaults */
  43:Core/Src/mgr_bout.c ****     bout_reset_lib();
  44:Core/Src/mgr_bout.c **** 
  45:Core/Src/mgr_bout.c ****     return EXIT_SUCCESS;
  46:Core/Src/mgr_bout.c **** }
  47:Core/Src/mgr_bout.c **** 
  48:Core/Src/mgr_bout.c **** void bout_reset_lib(void)
  49:Core/Src/mgr_bout.c **** {
  50:Core/Src/mgr_bout.c ****     uint8_t idx;
  51:Core/Src/mgr_bout.c ****     /* Set all pins to low by default */
  52:Core/Src/mgr_bout.c ****     for (idx = 0; idx < BOUT_CNT; idx++) {
  53:Core/Src/mgr_bout.c ****         stmgpio_write(&bout_gpio[idx], PIN_LOW);
  54:Core/Src/mgr_bout.c ****     }
  55:Core/Src/mgr_bout.c **** }
  56:Core/Src/mgr_bout.c **** 
  57:Core/Src/mgr_bout.c **** void bout_reset(uint8_t bout_num)
  58:Core/Src/mgr_bout.c **** {
  59:Core/Src/mgr_bout.c ****     /* write if its a relevant number */
  60:Core/Src/mgr_bout.c ****     if (BOUT_CNT > bout_num) {
  61:Core/Src/mgr_bout.c ****         stmgpio_write(&bout_gpio[bout_num], PIN_LOW);
  62:Core/Src/mgr_bout.c ****     }
  63:Core/Src/mgr_bout.c **** }
  64:Core/Src/mgr_bout.c **** 
  65:Core/Src/mgr_bout.c **** void bout_set(uint8_t bout_num)
  66:Core/Src/mgr_bout.c **** {
  67:Core/Src/mgr_bout.c ****     /* write if its a relevant number */
  68:Core/Src/mgr_bout.c ****     if (BOUT_CNT > bout_num) {
  69:Core/Src/mgr_bout.c ****         stmgpio_write(&bout_gpio[bout_num], PIN_HIGH);
  70:Core/Src/mgr_bout.c ****     }
  71:Core/Src/mgr_bout.c **** }
  72:Core/Src/mgr_bout.c **** 
  73:Core/Src/mgr_bout.c **** void bout_stop(void)
  74:Core/Src/mgr_bout.c **** {
  75:Core/Src/mgr_bout.c ****     bouts_is_active = false;
  76:Core/Src/mgr_bout.c **** }
  77:Core/Src/mgr_bout.c **** 
  78:Core/Src/mgr_bout.c **** void bout_start(void)
  79:Core/Src/mgr_bout.c **** {
  80:Core/Src/mgr_bout.c ****     bouts_is_active = true;
  81:Core/Src/mgr_bout.c **** }
  82:Core/Src/mgr_bout.c **** 
  83:Core/Src/mgr_bout.c **** void bout_poll(void)
  84:Core/Src/mgr_bout.c **** {
  85:Core/Src/mgr_bout.c ****     /*  */
  86:Core/Src/mgr_bout.c ****     while (callback_cnt > 0) {
  87:Core/Src/mgr_bout.c ****         callback_cnt--;
  88:Core/Src/mgr_bout.c ****     }
  89:Core/Src/mgr_bout.c **** }
ARM GAS  C:\Users\Callum\AppData\Local\Temp\ccZHZ9FM.s 			page 3


  90:Core/Src/mgr_bout.c **** 
  91:Core/Src/mgr_bout.c **** void bout_tick_callback(void)
  92:Core/Src/mgr_bout.c **** {
  27              		.loc 1 92 1 view -0
  28              		.cfi_startproc
  29              		@ args = 0, pretend = 0, frame = 0
  30              		@ frame_needed = 0, uses_anonymous_args = 0
  31              		@ link register save eliminated.
  93:Core/Src/mgr_bout.c ****     if (bouts_is_active)
  32              		.loc 1 93 5 view .LVU1
  33              		.loc 1 93 9 is_stmt 0 view .LVU2
  34 0000 044B     		ldr	r3, .L3
  35 0002 1B78     		ldrb	r3, [r3]	@ zero_extendqisi2
  36              		.loc 1 93 8 view .LVU3
  37 0004 23B1     		cbz	r3, .L1
  94:Core/Src/mgr_bout.c ****     {
  95:Core/Src/mgr_bout.c ****         callback_cnt++;
  38              		.loc 1 95 9 is_stmt 1 view .LVU4
  39              		.loc 1 95 21 is_stmt 0 view .LVU5
  40 0006 044A     		ldr	r2, .L3+4
  41 0008 1378     		ldrb	r3, [r2]	@ zero_extendqisi2
  42 000a 0133     		adds	r3, r3, #1
  43 000c DBB2     		uxtb	r3, r3
  44 000e 1370     		strb	r3, [r2]
  45              	.L1:
  96:Core/Src/mgr_bout.c ****     }
  97:Core/Src/mgr_bout.c **** }...
  46              		.loc 1 97 1 view .LVU6
  47 0010 7047     		bx	lr
  48              	.L4:
  49 0012 00BF     		.align	2
  50              	.L3:
  51 0014 00000000 		.word	bouts_is_active
  52 0018 00000000 		.word	callback_cnt
  53              		.cfi_endproc
  54              	.LFE72:
  56              		.section	.text.bout_reset_lib,"ax",%progbits
  57              		.align	1
  58              		.global	bout_reset_lib
  59              		.syntax unified
  60              		.thumb
  61              		.thumb_func
  63              	bout_reset_lib:
  64              	.LFB66:
  49:Core/Src/mgr_bout.c **** {
  65              		.loc 1 49 1 is_stmt 1 view -0
  66              		.cfi_startproc
  67              		@ args = 0, pretend = 0, frame = 0
  68              		@ frame_needed = 0, uses_anonymous_args = 0
  69 0000 10B5     		push	{r4, lr}
  70              		.cfi_def_cfa_offset 8
  71              		.cfi_offset 4, -8
  72              		.cfi_offset 14, -4
  50:Core/Src/mgr_bout.c ****     uint8_t idx;
  73              		.loc 1 50 5 view .LVU8
  52:Core/Src/mgr_bout.c ****     for (idx = 0; idx < BOUT_CNT; idx++) {
  74              		.loc 1 52 5 view .LVU9
ARM GAS  C:\Users\Callum\AppData\Local\Temp\ccZHZ9FM.s 			page 4


  75              	.LVL0:
  52:Core/Src/mgr_bout.c ****     for (idx = 0; idx < BOUT_CNT; idx++) {
  76              		.loc 1 52 14 is_stmt 0 view .LVU10
  77 0002 0024     		movs	r4, #0
  52:Core/Src/mgr_bout.c ****     for (idx = 0; idx < BOUT_CNT; idx++) {
  78              		.loc 1 52 5 view .LVU11
  79 0004 09E0     		b	.L6
  80              	.LVL1:
  81              	.L7:
  53:Core/Src/mgr_bout.c ****         stmgpio_write(&bout_gpio[idx], PIN_LOW);
  82              		.loc 1 53 9 is_stmt 1 discriminator 3 view .LVU12
  83 0006 04EB4402 		add	r2, r4, r4, lsl #1
  84 000a 9300     		lsls	r3, r2, #2
  85 000c 0121     		movs	r1, #1
  86 000e 0448     		ldr	r0, .L9
  87 0010 1844     		add	r0, r0, r3
  88 0012 FFF7FEFF 		bl	stmgpio_write
  89              	.LVL2:
  52:Core/Src/mgr_bout.c ****     for (idx = 0; idx < BOUT_CNT; idx++) {
  90              		.loc 1 52 38 discriminator 3 view .LVU13
  91 0016 0134     		adds	r4, r4, #1
  92              	.LVL3:
  52:Core/Src/mgr_bout.c ****     for (idx = 0; idx < BOUT_CNT; idx++) {
  93              		.loc 1 52 38 is_stmt 0 discriminator 3 view .LVU14
  94 0018 E4B2     		uxtb	r4, r4
  95              	.LVL4:
  96              	.L6:
  52:Core/Src/mgr_bout.c ****     for (idx = 0; idx < BOUT_CNT; idx++) {
  97              		.loc 1 52 23 is_stmt 1 discriminator 1 view .LVU15
  98 001a 072C     		cmp	r4, #7
  99 001c F3D9     		bls	.L7
  55:Core/Src/mgr_bout.c **** }
 100              		.loc 1 55 1 is_stmt 0 view .LVU16
 101 001e 10BD     		pop	{r4, pc}
 102              	.LVL5:
 103              	.L10:
  55:Core/Src/mgr_bout.c **** }
 104              		.loc 1 55 1 view .LVU17
 105              		.align	2
 106              	.L9:
 107 0020 00000000 		.word	bout_gpio
 108              		.cfi_endproc
 109              	.LFE66:
 111              		.section	.text.bout_init,"ax",%progbits
 112              		.align	1
 113              		.global	bout_init
 114              		.syntax unified
 115              		.thumb
 116              		.thumb_func
 118              	bout_init:
 119              	.LFB65:
  27:Core/Src/mgr_bout.c **** {
 120              		.loc 1 27 1 is_stmt 1 view -0
 121              		.cfi_startproc
 122              		@ args = 0, pretend = 0, frame = 0
 123              		@ frame_needed = 0, uses_anonymous_args = 0
 124 0000 10B5     		push	{r4, lr}
ARM GAS  C:\Users\Callum\AppData\Local\Temp\ccZHZ9FM.s 			page 5


 125              		.cfi_def_cfa_offset 8
 126              		.cfi_offset 4, -8
 127              		.cfi_offset 14, -4
  28:Core/Src/mgr_bout.c ****     uint8_t idx;
 128              		.loc 1 28 5 view .LVU19
  31:Core/Src/mgr_bout.c ****     for (idx = 0; idx < BOUT_CNT; idx++) {
 129              		.loc 1 31 5 view .LVU20
 130              	.LVL6:
  31:Core/Src/mgr_bout.c ****     for (idx = 0; idx < BOUT_CNT; idx++) {
 131              		.loc 1 31 14 is_stmt 0 view .LVU21
 132 0002 0024     		movs	r4, #0
 133              	.LVL7:
 134              	.L12:
  31:Core/Src/mgr_bout.c ****     for (idx = 0; idx < BOUT_CNT; idx++) {
 135              		.loc 1 31 23 is_stmt 1 discriminator 1 view .LVU22
 136 0004 072C     		cmp	r4, #7
 137 0006 15D8     		bhi	.L17
  32:Core/Src/mgr_bout.c ****         bout_gpio[idx].port = bout_gpio_ports[idx];
 138              		.loc 1 32 9 view .LVU23
  32:Core/Src/mgr_bout.c ****         bout_gpio[idx].port = bout_gpio_ports[idx];
 139              		.loc 1 32 46 is_stmt 0 view .LVU24
 140 0008 0F4B     		ldr	r3, .L18
 141 000a 195D     		ldrb	r1, [r3, r4]	@ zero_extendqisi2
  32:Core/Src/mgr_bout.c ****         bout_gpio[idx].port = bout_gpio_ports[idx];
 142              		.loc 1 32 29 view .LVU25
 143 000c 0F4A     		ldr	r2, .L18+4
 144 000e 04EB4403 		add	r3, r4, r4, lsl #1
 145 0012 02EB8303 		add	r3, r2, r3, lsl #2
 146 0016 1971     		strb	r1, [r3, #4]
  33:Core/Src/mgr_bout.c ****         bout_gpio[idx].pin = bout_gpio_pins[idx];
 147              		.loc 1 33 9 is_stmt 1 view .LVU26
  33:Core/Src/mgr_bout.c ****         bout_gpio[idx].pin = bout_gpio_pins[idx];
 148              		.loc 1 33 44 is_stmt 0 view .LVU27
 149 0018 0D49     		ldr	r1, .L18+8
 150 001a 095D     		ldrb	r1, [r1, r4]	@ zero_extendqisi2
  33:Core/Src/mgr_bout.c ****         bout_gpio[idx].pin = bout_gpio_pins[idx];
 151              		.loc 1 33 28 view .LVU28
 152 001c 5971     		strb	r1, [r3, #5]
  34:Core/Src/mgr_bout.c ****         bout_gpio[idx].cfg = OUT_PUSHPULL;
 153              		.loc 1 34 9 is_stmt 1 view .LVU29
  34:Core/Src/mgr_bout.c ****         bout_gpio[idx].cfg = OUT_PUSHPULL;
 154              		.loc 1 34 28 is_stmt 0 view .LVU30
 155 001e 0021     		movs	r1, #0
 156 0020 D970     		strb	r1, [r3, #3]
  35:Core/Src/mgr_bout.c ****         bout_gpio[idx].dir = OUTPUT_2MHZ;
 157              		.loc 1 35 9 is_stmt 1 view .LVU31
  35:Core/Src/mgr_bout.c ****         bout_gpio[idx].dir = OUTPUT_2MHZ;
 158              		.loc 1 35 28 is_stmt 0 view .LVU32
 159 0022 0221     		movs	r1, #2
 160 0024 5970     		strb	r1, [r3, #1]
  36:Core/Src/mgr_bout.c ****         ASSERT_INT(stmgpio_setup(&bout_gpio[idx]));
 161              		.loc 1 36 9 is_stmt 1 view .LVU33
 162 0026 1846     		mov	r0, r3
 163 0028 FFF7FEFF 		bl	stmgpio_setup
 164              	.LVL8:
 165 002c 48B9     		cbnz	r0, .L15
  31:Core/Src/mgr_bout.c ****     for (idx = 0; idx < BOUT_CNT; idx++) {
ARM GAS  C:\Users\Callum\AppData\Local\Temp\ccZHZ9FM.s 			page 6


 166              		.loc 1 31 38 discriminator 2 view .LVU34
 167 002e 0134     		adds	r4, r4, #1
 168              	.LVL9:
  31:Core/Src/mgr_bout.c ****     for (idx = 0; idx < BOUT_CNT; idx++) {
 169              		.loc 1 31 38 is_stmt 0 discriminator 2 view .LVU35
 170 0030 E4B2     		uxtb	r4, r4
 171              	.LVL10:
  31:Core/Src/mgr_bout.c ****     for (idx = 0; idx < BOUT_CNT; idx++) {
 172              		.loc 1 31 38 discriminator 2 view .LVU36
 173 0032 E7E7     		b	.L12
 174              	.L17:
  40:Core/Src/mgr_bout.c ****     hw_systick_add_callback(bout_tick_callback);
 175              		.loc 1 40 5 is_stmt 1 view .LVU37
 176 0034 0748     		ldr	r0, .L18+12
 177 0036 FFF7FEFF 		bl	hw_systick_add_callback
 178              	.LVL11:
  43:Core/Src/mgr_bout.c ****     bout_reset_lib();
 179              		.loc 1 43 5 view .LVU38
 180 003a FFF7FEFF 		bl	bout_reset_lib
 181              	.LVL12:
  45:Core/Src/mgr_bout.c ****     return EXIT_SUCCESS;
 182              		.loc 1 45 5 view .LVU39
  45:Core/Src/mgr_bout.c ****     return EXIT_SUCCESS;
 183              		.loc 1 45 12 is_stmt 0 view .LVU40
 184 003e 0020     		movs	r0, #0
 185              	.L11:
  46:Core/Src/mgr_bout.c **** }
 186              		.loc 1 46 1 view .LVU41
 187 0040 10BD     		pop	{r4, pc}
 188              	.LVL13:
 189              	.L15:
  36:Core/Src/mgr_bout.c ****         ASSERT_INT(stmgpio_setup(&bout_gpio[idx]));
 190              		.loc 1 36 9 view .LVU42
 191 0042 0120     		movs	r0, #1
 192 0044 FCE7     		b	.L11
 193              	.L19:
 194 0046 00BF     		.align	2
 195              	.L18:
 196 0048 00000000 		.word	bout_gpio_ports
 197 004c 00000000 		.word	bout_gpio
 198 0050 00000000 		.word	bout_gpio_pins
 199 0054 00000000 		.word	bout_tick_callback
 200              		.cfi_endproc
 201              	.LFE65:
 203              		.section	.text.bout_reset,"ax",%progbits
 204              		.align	1
 205              		.global	bout_reset
 206              		.syntax unified
 207              		.thumb
 208              		.thumb_func
 210              	bout_reset:
 211              	.LVL14:
 212              	.LFB67:
  58:Core/Src/mgr_bout.c **** {
 213              		.loc 1 58 1 is_stmt 1 view -0
 214              		.cfi_startproc
 215              		@ args = 0, pretend = 0, frame = 0
ARM GAS  C:\Users\Callum\AppData\Local\Temp\ccZHZ9FM.s 			page 7


 216              		@ frame_needed = 0, uses_anonymous_args = 0
  60:Core/Src/mgr_bout.c ****     if (BOUT_CNT > bout_num) {
 217              		.loc 1 60 5 view .LVU44
  60:Core/Src/mgr_bout.c ****     if (BOUT_CNT > bout_num) {
 218              		.loc 1 60 8 is_stmt 0 view .LVU45
 219 0000 0728     		cmp	r0, #7
 220 0002 00D9     		bls	.L26
 221 0004 7047     		bx	lr
 222              	.L26:
  58:Core/Src/mgr_bout.c **** {
 223              		.loc 1 58 1 view .LVU46
 224 0006 08B5     		push	{r3, lr}
 225              		.cfi_def_cfa_offset 8
 226              		.cfi_offset 3, -8
 227              		.cfi_offset 14, -4
  61:Core/Src/mgr_bout.c ****         stmgpio_write(&bout_gpio[bout_num], PIN_LOW);
 228              		.loc 1 61 9 is_stmt 1 view .LVU47
 229 0008 00EB4000 		add	r0, r0, r0, lsl #1
 230              	.LVL15:
  61:Core/Src/mgr_bout.c ****         stmgpio_write(&bout_gpio[bout_num], PIN_LOW);
 231              		.loc 1 61 9 is_stmt 0 view .LVU48
 232 000c 0121     		movs	r1, #1
 233 000e 034B     		ldr	r3, .L27
 234 0010 03EB8000 		add	r0, r3, r0, lsl #2
 235 0014 FFF7FEFF 		bl	stmgpio_write
 236              	.LVL16:
  63:Core/Src/mgr_bout.c **** }
 237              		.loc 1 63 1 view .LVU49
 238 0018 08BD     		pop	{r3, pc}
 239              	.L28:
 240 001a 00BF     		.align	2
 241              	.L27:
 242 001c 00000000 		.word	bout_gpio
 243              		.cfi_endproc
 244              	.LFE67:
 246              		.section	.text.bout_set,"ax",%progbits
 247              		.align	1
 248              		.global	bout_set
 249              		.syntax unified
 250              		.thumb
 251              		.thumb_func
 253              	bout_set:
 254              	.LVL17:
 255              	.LFB68:
  66:Core/Src/mgr_bout.c **** {
 256              		.loc 1 66 1 is_stmt 1 view -0
 257              		.cfi_startproc
 258              		@ args = 0, pretend = 0, frame = 0
 259              		@ frame_needed = 0, uses_anonymous_args = 0
  68:Core/Src/mgr_bout.c ****     if (BOUT_CNT > bout_num) {
 260              		.loc 1 68 5 view .LVU51
  68:Core/Src/mgr_bout.c ****     if (BOUT_CNT > bout_num) {
 261              		.loc 1 68 8 is_stmt 0 view .LVU52
 262 0000 0728     		cmp	r0, #7
 263 0002 00D9     		bls	.L35
 264 0004 7047     		bx	lr
 265              	.L35:
ARM GAS  C:\Users\Callum\AppData\Local\Temp\ccZHZ9FM.s 			page 8


  66:Core/Src/mgr_bout.c **** {
 266              		.loc 1 66 1 view .LVU53
 267 0006 08B5     		push	{r3, lr}
 268              		.cfi_def_cfa_offset 8
 269              		.cfi_offset 3, -8
 270              		.cfi_offset 14, -4
  69:Core/Src/mgr_bout.c ****         stmgpio_write(&bout_gpio[bout_num], PIN_HIGH);
 271              		.loc 1 69 9 is_stmt 1 view .LVU54
 272 0008 00EB4000 		add	r0, r0, r0, lsl #1
 273              	.LVL18:
  69:Core/Src/mgr_bout.c ****         stmgpio_write(&bout_gpio[bout_num], PIN_HIGH);
 274              		.loc 1 69 9 is_stmt 0 view .LVU55
 275 000c 0021     		movs	r1, #0
 276 000e 034B     		ldr	r3, .L36
 277 0010 03EB8000 		add	r0, r3, r0, lsl #2
 278 0014 FFF7FEFF 		bl	stmgpio_write
 279              	.LVL19:
  71:Core/Src/mgr_bout.c **** }
 280              		.loc 1 71 1 view .LVU56
 281 0018 08BD     		pop	{r3, pc}
 282              	.L37:
 283 001a 00BF     		.align	2
 284              	.L36:
 285 001c 00000000 		.word	bout_gpio
 286              		.cfi_endproc
 287              	.LFE68:
 289              		.section	.text.bout_stop,"ax",%progbits
 290              		.align	1
 291              		.global	bout_stop
 292              		.syntax unified
 293              		.thumb
 294              		.thumb_func
 296              	bout_stop:
 297              	.LFB69:
  74:Core/Src/mgr_bout.c **** {
 298              		.loc 1 74 1 is_stmt 1 view -0
 299              		.cfi_startproc
 300              		@ args = 0, pretend = 0, frame = 0
 301              		@ frame_needed = 0, uses_anonymous_args = 0
 302              		@ link register save eliminated.
  75:Core/Src/mgr_bout.c ****     bouts_is_active = false;
 303              		.loc 1 75 5 view .LVU58
  75:Core/Src/mgr_bout.c ****     bouts_is_active = false;
 304              		.loc 1 75 21 is_stmt 0 view .LVU59
 305 0000 014B     		ldr	r3, .L39
 306 0002 0022     		movs	r2, #0
 307 0004 1A70     		strb	r2, [r3]
  76:Core/Src/mgr_bout.c **** }
 308              		.loc 1 76 1 view .LVU60
 309 0006 7047     		bx	lr
 310              	.L40:
 311              		.align	2
 312              	.L39:
 313 0008 00000000 		.word	bouts_is_active
 314              		.cfi_endproc
 315              	.LFE69:
 317              		.section	.text.bout_start,"ax",%progbits
ARM GAS  C:\Users\Callum\AppData\Local\Temp\ccZHZ9FM.s 			page 9


 318              		.align	1
 319              		.global	bout_start
 320              		.syntax unified
 321              		.thumb
 322              		.thumb_func
 324              	bout_start:
 325              	.LFB70:
  79:Core/Src/mgr_bout.c **** {
 326              		.loc 1 79 1 is_stmt 1 view -0
 327              		.cfi_startproc
 328              		@ args = 0, pretend = 0, frame = 0
 329              		@ frame_needed = 0, uses_anonymous_args = 0
 330              		@ link register save eliminated.
  80:Core/Src/mgr_bout.c ****     bouts_is_active = true;
 331              		.loc 1 80 5 view .LVU62
  80:Core/Src/mgr_bout.c ****     bouts_is_active = true;
 332              		.loc 1 80 21 is_stmt 0 view .LVU63
 333 0000 014B     		ldr	r3, .L42
 334 0002 0122     		movs	r2, #1
 335 0004 1A70     		strb	r2, [r3]
  81:Core/Src/mgr_bout.c **** }
 336              		.loc 1 81 1 view .LVU64
 337 0006 7047     		bx	lr
 338              	.L43:
 339              		.align	2
 340              	.L42:
 341 0008 00000000 		.word	bouts_is_active
 342              		.cfi_endproc
 343              	.LFE70:
 345              		.section	.text.bout_poll,"ax",%progbits
 346              		.align	1
 347              		.global	bout_poll
 348              		.syntax unified
 349              		.thumb
 350              		.thumb_func
 352              	bout_poll:
 353              	.LFB71:
  84:Core/Src/mgr_bout.c **** {
 354              		.loc 1 84 1 is_stmt 1 view -0
 355              		.cfi_startproc
 356              		@ args = 0, pretend = 0, frame = 0
 357              		@ frame_needed = 0, uses_anonymous_args = 0
 358              		@ link register save eliminated.
  86:Core/Src/mgr_bout.c ****     while (callback_cnt > 0) {
 359              		.loc 1 86 5 view .LVU66
  86:Core/Src/mgr_bout.c ****     while (callback_cnt > 0) {
 360              		.loc 1 86 11 is_stmt 0 view .LVU67
 361 0000 04E0     		b	.L45
 362              	.L46:
  87:Core/Src/mgr_bout.c ****         callback_cnt--;
 363              		.loc 1 87 9 is_stmt 1 view .LVU68
  87:Core/Src/mgr_bout.c ****         callback_cnt--;
 364              		.loc 1 87 21 is_stmt 0 view .LVU69
 365 0002 054A     		ldr	r2, .L47
 366 0004 1378     		ldrb	r3, [r2]	@ zero_extendqisi2
 367 0006 013B     		subs	r3, r3, #1
 368 0008 DBB2     		uxtb	r3, r3
ARM GAS  C:\Users\Callum\AppData\Local\Temp\ccZHZ9FM.s 			page 10


 369 000a 1370     		strb	r3, [r2]
 370              	.L45:
  86:Core/Src/mgr_bout.c ****     while (callback_cnt > 0) {
 371              		.loc 1 86 25 is_stmt 1 view .LVU70
 372 000c 024B     		ldr	r3, .L47
 373 000e 1B78     		ldrb	r3, [r3]	@ zero_extendqisi2
 374 0010 002B     		cmp	r3, #0
 375 0012 F6D1     		bne	.L46
  89:Core/Src/mgr_bout.c **** }
 376              		.loc 1 89 1 is_stmt 0 view .LVU71
 377 0014 7047     		bx	lr
 378              	.L48:
 379 0016 00BF     		.align	2
 380              	.L47:
 381 0018 00000000 		.word	callback_cnt
 382              		.cfi_endproc
 383              	.LFE71:
 385              		.section	.bss.bouts_is_active,"aw",%nobits
 388              	bouts_is_active:
 389 0000 00       		.space	1
 390              		.section	.bss.callback_cnt,"aw",%nobits
 393              	callback_cnt:
 394 0000 00       		.space	1
 395              		.section	.bss.bout_gpio,"aw",%nobits
 396              		.align	2
 399              	bout_gpio:
 400 0000 00000000 		.space	96
 400      00000000 
 400      00000000 
 400      00000000 
 400      00000000 
 401              		.section	.rodata.bout_gpio_pins,"a"
 402              		.align	2
 405              	bout_gpio_pins:
 406 0000 0F000103 		.ascii	"\017\000\001\003\004\005\013\006"
 406      04050B06 
 407              		.section	.rodata.bout_gpio_ports,"a"
 408              		.align	2
 411              	bout_gpio_ports:
 412 0000 41424242 		.ascii	"ABBBBBBB"
 412      42424242 
 413              		.text
 414              	.Letext0:
 415              		.file 2 "c:\\users\\callum\\appdata\\roaming\\code\\user\\globalstorage\\bmd.stm32-for-vscode\\@xp
 416              		.file 3 "c:\\users\\callum\\appdata\\roaming\\code\\user\\globalstorage\\bmd.stm32-for-vscode\\@xp
 417              		.file 4 "Drivers/CMSIS/Device/ST/STM32F1xx/Include/stm32f103xb.h"
 418              		.file 5 "Core/Inc/hw_stmgpio.h"
 419              		.file 6 "Core/Inc/hw_systick.h"
ARM GAS  C:\Users\Callum\AppData\Local\Temp\ccZHZ9FM.s 			page 11


DEFINED SYMBOLS
                            *ABS*:0000000000000000 mgr_bout.c
C:\Users\Callum\AppData\Local\Temp\ccZHZ9FM.s:19     .text.bout_tick_callback:0000000000000000 $t
C:\Users\Callum\AppData\Local\Temp\ccZHZ9FM.s:25     .text.bout_tick_callback:0000000000000000 bout_tick_callback
C:\Users\Callum\AppData\Local\Temp\ccZHZ9FM.s:51     .text.bout_tick_callback:0000000000000014 $d
C:\Users\Callum\AppData\Local\Temp\ccZHZ9FM.s:388    .bss.bouts_is_active:0000000000000000 bouts_is_active
C:\Users\Callum\AppData\Local\Temp\ccZHZ9FM.s:393    .bss.callback_cnt:0000000000000000 callback_cnt
C:\Users\Callum\AppData\Local\Temp\ccZHZ9FM.s:57     .text.bout_reset_lib:0000000000000000 $t
C:\Users\Callum\AppData\Local\Temp\ccZHZ9FM.s:63     .text.bout_reset_lib:0000000000000000 bout_reset_lib
C:\Users\Callum\AppData\Local\Temp\ccZHZ9FM.s:107    .text.bout_reset_lib:0000000000000020 $d
C:\Users\Callum\AppData\Local\Temp\ccZHZ9FM.s:399    .bss.bout_gpio:0000000000000000 bout_gpio
C:\Users\Callum\AppData\Local\Temp\ccZHZ9FM.s:112    .text.bout_init:0000000000000000 $t
C:\Users\Callum\AppData\Local\Temp\ccZHZ9FM.s:118    .text.bout_init:0000000000000000 bout_init
C:\Users\Callum\AppData\Local\Temp\ccZHZ9FM.s:196    .text.bout_init:0000000000000048 $d
C:\Users\Callum\AppData\Local\Temp\ccZHZ9FM.s:411    .rodata.bout_gpio_ports:0000000000000000 bout_gpio_ports
C:\Users\Callum\AppData\Local\Temp\ccZHZ9FM.s:405    .rodata.bout_gpio_pins:0000000000000000 bout_gpio_pins
C:\Users\Callum\AppData\Local\Temp\ccZHZ9FM.s:204    .text.bout_reset:0000000000000000 $t
C:\Users\Callum\AppData\Local\Temp\ccZHZ9FM.s:210    .text.bout_reset:0000000000000000 bout_reset
C:\Users\Callum\AppData\Local\Temp\ccZHZ9FM.s:242    .text.bout_reset:000000000000001c $d
C:\Users\Callum\AppData\Local\Temp\ccZHZ9FM.s:247    .text.bout_set:0000000000000000 $t
C:\Users\Callum\AppData\Local\Temp\ccZHZ9FM.s:253    .text.bout_set:0000000000000000 bout_set
C:\Users\Callum\AppData\Local\Temp\ccZHZ9FM.s:285    .text.bout_set:000000000000001c $d
C:\Users\Callum\AppData\Local\Temp\ccZHZ9FM.s:290    .text.bout_stop:0000000000000000 $t
C:\Users\Callum\AppData\Local\Temp\ccZHZ9FM.s:296    .text.bout_stop:0000000000000000 bout_stop
C:\Users\Callum\AppData\Local\Temp\ccZHZ9FM.s:313    .text.bout_stop:0000000000000008 $d
C:\Users\Callum\AppData\Local\Temp\ccZHZ9FM.s:318    .text.bout_start:0000000000000000 $t
C:\Users\Callum\AppData\Local\Temp\ccZHZ9FM.s:324    .text.bout_start:0000000000000000 bout_start
C:\Users\Callum\AppData\Local\Temp\ccZHZ9FM.s:341    .text.bout_start:0000000000000008 $d
C:\Users\Callum\AppData\Local\Temp\ccZHZ9FM.s:346    .text.bout_poll:0000000000000000 $t
C:\Users\Callum\AppData\Local\Temp\ccZHZ9FM.s:352    .text.bout_poll:0000000000000000 bout_poll
C:\Users\Callum\AppData\Local\Temp\ccZHZ9FM.s:381    .text.bout_poll:0000000000000018 $d
C:\Users\Callum\AppData\Local\Temp\ccZHZ9FM.s:389    .bss.bouts_is_active:0000000000000000 $d
C:\Users\Callum\AppData\Local\Temp\ccZHZ9FM.s:394    .bss.callback_cnt:0000000000000000 $d
C:\Users\Callum\AppData\Local\Temp\ccZHZ9FM.s:396    .bss.bout_gpio:0000000000000000 $d
C:\Users\Callum\AppData\Local\Temp\ccZHZ9FM.s:402    .rodata.bout_gpio_pins:0000000000000000 $d
C:\Users\Callum\AppData\Local\Temp\ccZHZ9FM.s:408    .rodata.bout_gpio_ports:0000000000000000 $d

UNDEFINED SYMBOLS
stmgpio_write
stmgpio_setup
hw_systick_add_callback
