ARM GAS  /tmp/ccSSjYDs.s 			page 1


   1              		.cpu cortex-m3
   2              		.arch armv7-m
   3              		.fpu softvfp
   4              		.eabi_attribute 20, 1
   5              		.eabi_attribute 21, 1
   6              		.eabi_attribute 23, 3
   7              		.eabi_attribute 24, 1
   8              		.eabi_attribute 25, 1
   9              		.eabi_attribute 26, 1
  10              		.eabi_attribute 30, 1
  11              		.eabi_attribute 34, 1
  12              		.eabi_attribute 18, 4
  13              		.file	"stm32f1xx_ll_i2c.c"
  14              		.text
  15              	.Ltext0:
  16              		.cfi_sections	.debug_frame
  17              		.section	.text.LL_I2C_DeInit,"ax",%progbits
  18              		.align	1
  19              		.global	LL_I2C_DeInit
  20              		.syntax unified
  21              		.thumb
  22              		.thumb_func
  24              	LL_I2C_DeInit:
  25              	.LVL0:
  26              	.LFB263:
  27              		.file 1 "Drivers/STM32F1xx_HAL_Driver/Src/stm32f1xx_ll_i2c.c"
   1:Drivers/STM32F1xx_HAL_Driver/Src/stm32f1xx_ll_i2c.c **** /**
   2:Drivers/STM32F1xx_HAL_Driver/Src/stm32f1xx_ll_i2c.c ****   ******************************************************************************
   3:Drivers/STM32F1xx_HAL_Driver/Src/stm32f1xx_ll_i2c.c ****   * @file    stm32f1xx_ll_i2c.c
   4:Drivers/STM32F1xx_HAL_Driver/Src/stm32f1xx_ll_i2c.c ****   * @author  MCD Application Team
   5:Drivers/STM32F1xx_HAL_Driver/Src/stm32f1xx_ll_i2c.c ****   * @brief   I2C LL module driver.
   6:Drivers/STM32F1xx_HAL_Driver/Src/stm32f1xx_ll_i2c.c ****   ******************************************************************************
   7:Drivers/STM32F1xx_HAL_Driver/Src/stm32f1xx_ll_i2c.c ****   * @attention
   8:Drivers/STM32F1xx_HAL_Driver/Src/stm32f1xx_ll_i2c.c ****   *
   9:Drivers/STM32F1xx_HAL_Driver/Src/stm32f1xx_ll_i2c.c ****   * <h2><center>&copy; Copyright (c) 2016 STMicroelectronics.
  10:Drivers/STM32F1xx_HAL_Driver/Src/stm32f1xx_ll_i2c.c ****   * All rights reserved.</center></h2>
  11:Drivers/STM32F1xx_HAL_Driver/Src/stm32f1xx_ll_i2c.c ****   *
  12:Drivers/STM32F1xx_HAL_Driver/Src/stm32f1xx_ll_i2c.c ****   * This software component is licensed by ST under BSD 3-Clause license,
  13:Drivers/STM32F1xx_HAL_Driver/Src/stm32f1xx_ll_i2c.c ****   * the "License"; You may not use this file except in compliance with the
  14:Drivers/STM32F1xx_HAL_Driver/Src/stm32f1xx_ll_i2c.c ****   * License. You may obtain a copy of the License at:
  15:Drivers/STM32F1xx_HAL_Driver/Src/stm32f1xx_ll_i2c.c ****   *                        opensource.org/licenses/BSD-3-Clause
  16:Drivers/STM32F1xx_HAL_Driver/Src/stm32f1xx_ll_i2c.c ****   *
  17:Drivers/STM32F1xx_HAL_Driver/Src/stm32f1xx_ll_i2c.c ****   ******************************************************************************
  18:Drivers/STM32F1xx_HAL_Driver/Src/stm32f1xx_ll_i2c.c ****   */
  19:Drivers/STM32F1xx_HAL_Driver/Src/stm32f1xx_ll_i2c.c **** #if defined(USE_FULL_LL_DRIVER)
  20:Drivers/STM32F1xx_HAL_Driver/Src/stm32f1xx_ll_i2c.c **** 
  21:Drivers/STM32F1xx_HAL_Driver/Src/stm32f1xx_ll_i2c.c **** /* Includes ------------------------------------------------------------------*/
  22:Drivers/STM32F1xx_HAL_Driver/Src/stm32f1xx_ll_i2c.c **** #include "stm32f1xx_ll_i2c.h"
  23:Drivers/STM32F1xx_HAL_Driver/Src/stm32f1xx_ll_i2c.c **** #include "stm32f1xx_ll_bus.h"
  24:Drivers/STM32F1xx_HAL_Driver/Src/stm32f1xx_ll_i2c.c **** #include "stm32f1xx_ll_rcc.h"
  25:Drivers/STM32F1xx_HAL_Driver/Src/stm32f1xx_ll_i2c.c **** #ifdef  USE_FULL_ASSERT
  26:Drivers/STM32F1xx_HAL_Driver/Src/stm32f1xx_ll_i2c.c **** #include "stm32_assert.h"
  27:Drivers/STM32F1xx_HAL_Driver/Src/stm32f1xx_ll_i2c.c **** #else
  28:Drivers/STM32F1xx_HAL_Driver/Src/stm32f1xx_ll_i2c.c **** #define assert_param(expr) ((void)0U)
  29:Drivers/STM32F1xx_HAL_Driver/Src/stm32f1xx_ll_i2c.c **** #endif
  30:Drivers/STM32F1xx_HAL_Driver/Src/stm32f1xx_ll_i2c.c **** 
  31:Drivers/STM32F1xx_HAL_Driver/Src/stm32f1xx_ll_i2c.c **** /** @addtogroup STM32F1xx_LL_Driver
ARM GAS  /tmp/ccSSjYDs.s 			page 2


  32:Drivers/STM32F1xx_HAL_Driver/Src/stm32f1xx_ll_i2c.c ****   * @{
  33:Drivers/STM32F1xx_HAL_Driver/Src/stm32f1xx_ll_i2c.c ****   */
  34:Drivers/STM32F1xx_HAL_Driver/Src/stm32f1xx_ll_i2c.c **** 
  35:Drivers/STM32F1xx_HAL_Driver/Src/stm32f1xx_ll_i2c.c **** #if defined (I2C1) || defined (I2C2)
  36:Drivers/STM32F1xx_HAL_Driver/Src/stm32f1xx_ll_i2c.c **** 
  37:Drivers/STM32F1xx_HAL_Driver/Src/stm32f1xx_ll_i2c.c **** /** @defgroup I2C_LL I2C
  38:Drivers/STM32F1xx_HAL_Driver/Src/stm32f1xx_ll_i2c.c ****   * @{
  39:Drivers/STM32F1xx_HAL_Driver/Src/stm32f1xx_ll_i2c.c ****   */
  40:Drivers/STM32F1xx_HAL_Driver/Src/stm32f1xx_ll_i2c.c **** 
  41:Drivers/STM32F1xx_HAL_Driver/Src/stm32f1xx_ll_i2c.c **** /* Private types -------------------------------------------------------------*/
  42:Drivers/STM32F1xx_HAL_Driver/Src/stm32f1xx_ll_i2c.c **** /* Private variables ---------------------------------------------------------*/
  43:Drivers/STM32F1xx_HAL_Driver/Src/stm32f1xx_ll_i2c.c **** /* Private constants ---------------------------------------------------------*/
  44:Drivers/STM32F1xx_HAL_Driver/Src/stm32f1xx_ll_i2c.c **** /* Private macros ------------------------------------------------------------*/
  45:Drivers/STM32F1xx_HAL_Driver/Src/stm32f1xx_ll_i2c.c **** /** @addtogroup I2C_LL_Private_Macros
  46:Drivers/STM32F1xx_HAL_Driver/Src/stm32f1xx_ll_i2c.c ****   * @{
  47:Drivers/STM32F1xx_HAL_Driver/Src/stm32f1xx_ll_i2c.c ****   */
  48:Drivers/STM32F1xx_HAL_Driver/Src/stm32f1xx_ll_i2c.c **** 
  49:Drivers/STM32F1xx_HAL_Driver/Src/stm32f1xx_ll_i2c.c **** #define IS_LL_I2C_PERIPHERAL_MODE(__VALUE__)    (((__VALUE__) == LL_I2C_MODE_I2C)          || \
  50:Drivers/STM32F1xx_HAL_Driver/Src/stm32f1xx_ll_i2c.c ****                                                  ((__VALUE__) == LL_I2C_MODE_SMBUS_HOST)   || \
  51:Drivers/STM32F1xx_HAL_Driver/Src/stm32f1xx_ll_i2c.c ****                                                  ((__VALUE__) == LL_I2C_MODE_SMBUS_DEVICE) || \
  52:Drivers/STM32F1xx_HAL_Driver/Src/stm32f1xx_ll_i2c.c ****                                                  ((__VALUE__) == LL_I2C_MODE_SMBUS_DEVICE_ARP))
  53:Drivers/STM32F1xx_HAL_Driver/Src/stm32f1xx_ll_i2c.c **** 
  54:Drivers/STM32F1xx_HAL_Driver/Src/stm32f1xx_ll_i2c.c **** #define IS_LL_I2C_CLOCK_SPEED(__VALUE__)           (((__VALUE__) > 0U) && ((__VALUE__) <= LL_I2C_MA
  55:Drivers/STM32F1xx_HAL_Driver/Src/stm32f1xx_ll_i2c.c **** 
  56:Drivers/STM32F1xx_HAL_Driver/Src/stm32f1xx_ll_i2c.c **** #define IS_LL_I2C_DUTY_CYCLE(__VALUE__)            (((__VALUE__) == LL_I2C_DUTYCYCLE_2) || \
  57:Drivers/STM32F1xx_HAL_Driver/Src/stm32f1xx_ll_i2c.c ****                                                  ((__VALUE__) == LL_I2C_DUTYCYCLE_16_9))
  58:Drivers/STM32F1xx_HAL_Driver/Src/stm32f1xx_ll_i2c.c **** 
  59:Drivers/STM32F1xx_HAL_Driver/Src/stm32f1xx_ll_i2c.c **** #define IS_LL_I2C_OWN_ADDRESS1(__VALUE__)       ((__VALUE__) <= 0x000003FFU)
  60:Drivers/STM32F1xx_HAL_Driver/Src/stm32f1xx_ll_i2c.c **** 
  61:Drivers/STM32F1xx_HAL_Driver/Src/stm32f1xx_ll_i2c.c **** #define IS_LL_I2C_TYPE_ACKNOWLEDGE(__VALUE__)   (((__VALUE__) == LL_I2C_ACK) || \
  62:Drivers/STM32F1xx_HAL_Driver/Src/stm32f1xx_ll_i2c.c ****                                                  ((__VALUE__) == LL_I2C_NACK))
  63:Drivers/STM32F1xx_HAL_Driver/Src/stm32f1xx_ll_i2c.c **** 
  64:Drivers/STM32F1xx_HAL_Driver/Src/stm32f1xx_ll_i2c.c **** #define IS_LL_I2C_OWN_ADDRSIZE(__VALUE__)       (((__VALUE__) == LL_I2C_OWNADDRESS1_7BIT) || \
  65:Drivers/STM32F1xx_HAL_Driver/Src/stm32f1xx_ll_i2c.c ****                                                  ((__VALUE__) == LL_I2C_OWNADDRESS1_10BIT))
  66:Drivers/STM32F1xx_HAL_Driver/Src/stm32f1xx_ll_i2c.c **** /**
  67:Drivers/STM32F1xx_HAL_Driver/Src/stm32f1xx_ll_i2c.c ****   * @}
  68:Drivers/STM32F1xx_HAL_Driver/Src/stm32f1xx_ll_i2c.c ****   */
  69:Drivers/STM32F1xx_HAL_Driver/Src/stm32f1xx_ll_i2c.c **** 
  70:Drivers/STM32F1xx_HAL_Driver/Src/stm32f1xx_ll_i2c.c **** /* Private function prototypes -----------------------------------------------*/
  71:Drivers/STM32F1xx_HAL_Driver/Src/stm32f1xx_ll_i2c.c **** 
  72:Drivers/STM32F1xx_HAL_Driver/Src/stm32f1xx_ll_i2c.c **** /* Exported functions --------------------------------------------------------*/
  73:Drivers/STM32F1xx_HAL_Driver/Src/stm32f1xx_ll_i2c.c **** /** @addtogroup I2C_LL_Exported_Functions
  74:Drivers/STM32F1xx_HAL_Driver/Src/stm32f1xx_ll_i2c.c ****   * @{
  75:Drivers/STM32F1xx_HAL_Driver/Src/stm32f1xx_ll_i2c.c ****   */
  76:Drivers/STM32F1xx_HAL_Driver/Src/stm32f1xx_ll_i2c.c **** 
  77:Drivers/STM32F1xx_HAL_Driver/Src/stm32f1xx_ll_i2c.c **** /** @addtogroup I2C_LL_EF_Init
  78:Drivers/STM32F1xx_HAL_Driver/Src/stm32f1xx_ll_i2c.c ****   * @{
  79:Drivers/STM32F1xx_HAL_Driver/Src/stm32f1xx_ll_i2c.c ****   */
  80:Drivers/STM32F1xx_HAL_Driver/Src/stm32f1xx_ll_i2c.c **** 
  81:Drivers/STM32F1xx_HAL_Driver/Src/stm32f1xx_ll_i2c.c **** /**
  82:Drivers/STM32F1xx_HAL_Driver/Src/stm32f1xx_ll_i2c.c ****   * @brief  De-initialize the I2C registers to their default reset values.
  83:Drivers/STM32F1xx_HAL_Driver/Src/stm32f1xx_ll_i2c.c ****   * @param  I2Cx I2C Instance.
  84:Drivers/STM32F1xx_HAL_Driver/Src/stm32f1xx_ll_i2c.c ****   * @retval An ErrorStatus enumeration value:
  85:Drivers/STM32F1xx_HAL_Driver/Src/stm32f1xx_ll_i2c.c ****   *          - SUCCESS  I2C registers are de-initialized
  86:Drivers/STM32F1xx_HAL_Driver/Src/stm32f1xx_ll_i2c.c ****   *          - ERROR  I2C registers are not de-initialized
  87:Drivers/STM32F1xx_HAL_Driver/Src/stm32f1xx_ll_i2c.c ****   */
  88:Drivers/STM32F1xx_HAL_Driver/Src/stm32f1xx_ll_i2c.c **** uint32_t LL_I2C_DeInit(I2C_TypeDef *I2Cx)
ARM GAS  /tmp/ccSSjYDs.s 			page 3


  89:Drivers/STM32F1xx_HAL_Driver/Src/stm32f1xx_ll_i2c.c **** {
  28              		.loc 1 89 1 view -0
  29              		.cfi_startproc
  30              		@ args = 0, pretend = 0, frame = 0
  31              		@ frame_needed = 0, uses_anonymous_args = 0
  32              		@ link register save eliminated.
  90:Drivers/STM32F1xx_HAL_Driver/Src/stm32f1xx_ll_i2c.c ****   ErrorStatus status = SUCCESS;
  33              		.loc 1 90 3 view .LVU1
  91:Drivers/STM32F1xx_HAL_Driver/Src/stm32f1xx_ll_i2c.c **** 
  92:Drivers/STM32F1xx_HAL_Driver/Src/stm32f1xx_ll_i2c.c ****   /* Check the I2C Instance I2Cx */
  93:Drivers/STM32F1xx_HAL_Driver/Src/stm32f1xx_ll_i2c.c ****   assert_param(IS_I2C_ALL_INSTANCE(I2Cx));
  34              		.loc 1 93 3 view .LVU2
  94:Drivers/STM32F1xx_HAL_Driver/Src/stm32f1xx_ll_i2c.c **** 
  95:Drivers/STM32F1xx_HAL_Driver/Src/stm32f1xx_ll_i2c.c ****   if (I2Cx == I2C1)
  35              		.loc 1 95 3 view .LVU3
  36              		.loc 1 95 6 is_stmt 0 view .LVU4
  37 0000 0F4B     		ldr	r3, .L7
  38 0002 9842     		cmp	r0, r3
  39 0004 04D0     		beq	.L5
  96:Drivers/STM32F1xx_HAL_Driver/Src/stm32f1xx_ll_i2c.c ****   {
  97:Drivers/STM32F1xx_HAL_Driver/Src/stm32f1xx_ll_i2c.c ****     /* Force reset of I2C clock */
  98:Drivers/STM32F1xx_HAL_Driver/Src/stm32f1xx_ll_i2c.c ****     LL_APB1_GRP1_ForceReset(LL_APB1_GRP1_PERIPH_I2C1);
  99:Drivers/STM32F1xx_HAL_Driver/Src/stm32f1xx_ll_i2c.c **** 
 100:Drivers/STM32F1xx_HAL_Driver/Src/stm32f1xx_ll_i2c.c ****     /* Release reset of I2C clock */
 101:Drivers/STM32F1xx_HAL_Driver/Src/stm32f1xx_ll_i2c.c ****     LL_APB1_GRP1_ReleaseReset(LL_APB1_GRP1_PERIPH_I2C1);
 102:Drivers/STM32F1xx_HAL_Driver/Src/stm32f1xx_ll_i2c.c ****   }
 103:Drivers/STM32F1xx_HAL_Driver/Src/stm32f1xx_ll_i2c.c **** #if defined(I2C2)
 104:Drivers/STM32F1xx_HAL_Driver/Src/stm32f1xx_ll_i2c.c ****   else if (I2Cx == I2C2)
  40              		.loc 1 104 8 is_stmt 1 view .LVU5
  41              		.loc 1 104 11 is_stmt 0 view .LVU6
  42 0006 0F4B     		ldr	r3, .L7+4
  43 0008 9842     		cmp	r0, r3
  44 000a 0DD0     		beq	.L6
 105:Drivers/STM32F1xx_HAL_Driver/Src/stm32f1xx_ll_i2c.c ****   {
 106:Drivers/STM32F1xx_HAL_Driver/Src/stm32f1xx_ll_i2c.c ****     /* Force reset of I2C clock */
 107:Drivers/STM32F1xx_HAL_Driver/Src/stm32f1xx_ll_i2c.c ****     LL_APB1_GRP1_ForceReset(LL_APB1_GRP1_PERIPH_I2C2);
 108:Drivers/STM32F1xx_HAL_Driver/Src/stm32f1xx_ll_i2c.c **** 
 109:Drivers/STM32F1xx_HAL_Driver/Src/stm32f1xx_ll_i2c.c ****     /* Release reset of I2C clock */
 110:Drivers/STM32F1xx_HAL_Driver/Src/stm32f1xx_ll_i2c.c ****     LL_APB1_GRP1_ReleaseReset(LL_APB1_GRP1_PERIPH_I2C2);
 111:Drivers/STM32F1xx_HAL_Driver/Src/stm32f1xx_ll_i2c.c **** 
 112:Drivers/STM32F1xx_HAL_Driver/Src/stm32f1xx_ll_i2c.c ****   }
 113:Drivers/STM32F1xx_HAL_Driver/Src/stm32f1xx_ll_i2c.c **** #endif /* I2C2 */
 114:Drivers/STM32F1xx_HAL_Driver/Src/stm32f1xx_ll_i2c.c ****   else
 115:Drivers/STM32F1xx_HAL_Driver/Src/stm32f1xx_ll_i2c.c ****   {
 116:Drivers/STM32F1xx_HAL_Driver/Src/stm32f1xx_ll_i2c.c ****     status = ERROR;
  45              		.loc 1 116 12 view .LVU7
  46 000c 0120     		movs	r0, #1
  47              	.LVL1:
 117:Drivers/STM32F1xx_HAL_Driver/Src/stm32f1xx_ll_i2c.c ****   }
 118:Drivers/STM32F1xx_HAL_Driver/Src/stm32f1xx_ll_i2c.c **** 
 119:Drivers/STM32F1xx_HAL_Driver/Src/stm32f1xx_ll_i2c.c ****   return status;
  48              		.loc 1 119 3 is_stmt 1 view .LVU8
 120:Drivers/STM32F1xx_HAL_Driver/Src/stm32f1xx_ll_i2c.c **** }
  49              		.loc 1 120 1 is_stmt 0 view .LVU9
  50 000e 7047     		bx	lr
  51              	.LVL2:
  52              	.L5:
ARM GAS  /tmp/ccSSjYDs.s 			page 4


  98:Drivers/STM32F1xx_HAL_Driver/Src/stm32f1xx_ll_i2c.c **** 
  53              		.loc 1 98 5 is_stmt 1 view .LVU10
  54              	.LBB20:
  55              	.LBI20:
  56              		.file 2 "Drivers/STM32F1xx_HAL_Driver/Inc/stm32f1xx_ll_bus.h"
   1:Drivers/STM32F1xx_HAL_Driver/Inc/stm32f1xx_ll_bus.h **** /**
   2:Drivers/STM32F1xx_HAL_Driver/Inc/stm32f1xx_ll_bus.h ****   ******************************************************************************
   3:Drivers/STM32F1xx_HAL_Driver/Inc/stm32f1xx_ll_bus.h ****   * @file    stm32f1xx_ll_bus.h
   4:Drivers/STM32F1xx_HAL_Driver/Inc/stm32f1xx_ll_bus.h ****   * @author  MCD Application Team
   5:Drivers/STM32F1xx_HAL_Driver/Inc/stm32f1xx_ll_bus.h ****   * @brief   Header file of BUS LL module.
   6:Drivers/STM32F1xx_HAL_Driver/Inc/stm32f1xx_ll_bus.h **** 
   7:Drivers/STM32F1xx_HAL_Driver/Inc/stm32f1xx_ll_bus.h ****   @verbatim
   8:Drivers/STM32F1xx_HAL_Driver/Inc/stm32f1xx_ll_bus.h ****                       ##### RCC Limitations #####
   9:Drivers/STM32F1xx_HAL_Driver/Inc/stm32f1xx_ll_bus.h ****   ==============================================================================
  10:Drivers/STM32F1xx_HAL_Driver/Inc/stm32f1xx_ll_bus.h ****     [..]
  11:Drivers/STM32F1xx_HAL_Driver/Inc/stm32f1xx_ll_bus.h ****       A delay between an RCC peripheral clock enable and the effective peripheral
  12:Drivers/STM32F1xx_HAL_Driver/Inc/stm32f1xx_ll_bus.h ****       enabling should be taken into account in order to manage the peripheral read/write
  13:Drivers/STM32F1xx_HAL_Driver/Inc/stm32f1xx_ll_bus.h ****       from/to registers.
  14:Drivers/STM32F1xx_HAL_Driver/Inc/stm32f1xx_ll_bus.h ****       (+) This delay depends on the peripheral mapping.
  15:Drivers/STM32F1xx_HAL_Driver/Inc/stm32f1xx_ll_bus.h ****         (++) AHB & APB peripherals, 1 dummy read is necessary
  16:Drivers/STM32F1xx_HAL_Driver/Inc/stm32f1xx_ll_bus.h **** 
  17:Drivers/STM32F1xx_HAL_Driver/Inc/stm32f1xx_ll_bus.h ****     [..]
  18:Drivers/STM32F1xx_HAL_Driver/Inc/stm32f1xx_ll_bus.h ****       Workarounds:
  19:Drivers/STM32F1xx_HAL_Driver/Inc/stm32f1xx_ll_bus.h ****       (#) For AHB & APB peripherals, a dummy read to the peripheral register has been
  20:Drivers/STM32F1xx_HAL_Driver/Inc/stm32f1xx_ll_bus.h ****           inserted in each LL_{BUS}_GRP{x}_EnableClock() function.
  21:Drivers/STM32F1xx_HAL_Driver/Inc/stm32f1xx_ll_bus.h **** 
  22:Drivers/STM32F1xx_HAL_Driver/Inc/stm32f1xx_ll_bus.h ****   @endverbatim
  23:Drivers/STM32F1xx_HAL_Driver/Inc/stm32f1xx_ll_bus.h ****   ******************************************************************************
  24:Drivers/STM32F1xx_HAL_Driver/Inc/stm32f1xx_ll_bus.h ****   * @attention
  25:Drivers/STM32F1xx_HAL_Driver/Inc/stm32f1xx_ll_bus.h ****   *
  26:Drivers/STM32F1xx_HAL_Driver/Inc/stm32f1xx_ll_bus.h ****   * <h2><center>&copy; Copyright (c) 2016 STMicroelectronics.
  27:Drivers/STM32F1xx_HAL_Driver/Inc/stm32f1xx_ll_bus.h ****   * All rights reserved.</center></h2>
  28:Drivers/STM32F1xx_HAL_Driver/Inc/stm32f1xx_ll_bus.h ****   *
  29:Drivers/STM32F1xx_HAL_Driver/Inc/stm32f1xx_ll_bus.h ****   * This software component is licensed by ST under BSD 3-Clause license,
  30:Drivers/STM32F1xx_HAL_Driver/Inc/stm32f1xx_ll_bus.h ****   * the "License"; You may not use this file except in compliance with the
  31:Drivers/STM32F1xx_HAL_Driver/Inc/stm32f1xx_ll_bus.h ****   * License. You may obtain a copy of the License at:
  32:Drivers/STM32F1xx_HAL_Driver/Inc/stm32f1xx_ll_bus.h ****   *                        opensource.org/licenses/BSD-3-Clause
  33:Drivers/STM32F1xx_HAL_Driver/Inc/stm32f1xx_ll_bus.h ****   *
  34:Drivers/STM32F1xx_HAL_Driver/Inc/stm32f1xx_ll_bus.h ****   ******************************************************************************
  35:Drivers/STM32F1xx_HAL_Driver/Inc/stm32f1xx_ll_bus.h ****   */
  36:Drivers/STM32F1xx_HAL_Driver/Inc/stm32f1xx_ll_bus.h **** 
  37:Drivers/STM32F1xx_HAL_Driver/Inc/stm32f1xx_ll_bus.h **** /* Define to prevent recursive inclusion -------------------------------------*/
  38:Drivers/STM32F1xx_HAL_Driver/Inc/stm32f1xx_ll_bus.h **** #ifndef __STM32F1xx_LL_BUS_H
  39:Drivers/STM32F1xx_HAL_Driver/Inc/stm32f1xx_ll_bus.h **** #define __STM32F1xx_LL_BUS_H
  40:Drivers/STM32F1xx_HAL_Driver/Inc/stm32f1xx_ll_bus.h **** 
  41:Drivers/STM32F1xx_HAL_Driver/Inc/stm32f1xx_ll_bus.h **** #ifdef __cplusplus
  42:Drivers/STM32F1xx_HAL_Driver/Inc/stm32f1xx_ll_bus.h **** extern "C" {
  43:Drivers/STM32F1xx_HAL_Driver/Inc/stm32f1xx_ll_bus.h **** #endif
  44:Drivers/STM32F1xx_HAL_Driver/Inc/stm32f1xx_ll_bus.h **** 
  45:Drivers/STM32F1xx_HAL_Driver/Inc/stm32f1xx_ll_bus.h **** /* Includes ------------------------------------------------------------------*/
  46:Drivers/STM32F1xx_HAL_Driver/Inc/stm32f1xx_ll_bus.h **** #include "stm32f1xx.h"
  47:Drivers/STM32F1xx_HAL_Driver/Inc/stm32f1xx_ll_bus.h **** 
  48:Drivers/STM32F1xx_HAL_Driver/Inc/stm32f1xx_ll_bus.h **** /** @addtogroup STM32F1xx_LL_Driver
  49:Drivers/STM32F1xx_HAL_Driver/Inc/stm32f1xx_ll_bus.h ****   * @{
  50:Drivers/STM32F1xx_HAL_Driver/Inc/stm32f1xx_ll_bus.h ****   */
  51:Drivers/STM32F1xx_HAL_Driver/Inc/stm32f1xx_ll_bus.h **** 
  52:Drivers/STM32F1xx_HAL_Driver/Inc/stm32f1xx_ll_bus.h **** #if defined(RCC)
ARM GAS  /tmp/ccSSjYDs.s 			page 5


  53:Drivers/STM32F1xx_HAL_Driver/Inc/stm32f1xx_ll_bus.h **** 
  54:Drivers/STM32F1xx_HAL_Driver/Inc/stm32f1xx_ll_bus.h **** /** @defgroup BUS_LL BUS
  55:Drivers/STM32F1xx_HAL_Driver/Inc/stm32f1xx_ll_bus.h ****   * @{
  56:Drivers/STM32F1xx_HAL_Driver/Inc/stm32f1xx_ll_bus.h ****   */
  57:Drivers/STM32F1xx_HAL_Driver/Inc/stm32f1xx_ll_bus.h **** 
  58:Drivers/STM32F1xx_HAL_Driver/Inc/stm32f1xx_ll_bus.h **** /* Private types -------------------------------------------------------------*/
  59:Drivers/STM32F1xx_HAL_Driver/Inc/stm32f1xx_ll_bus.h **** /* Private variables ---------------------------------------------------------*/
  60:Drivers/STM32F1xx_HAL_Driver/Inc/stm32f1xx_ll_bus.h **** 
  61:Drivers/STM32F1xx_HAL_Driver/Inc/stm32f1xx_ll_bus.h **** /* Private constants ---------------------------------------------------------*/
  62:Drivers/STM32F1xx_HAL_Driver/Inc/stm32f1xx_ll_bus.h **** #if defined(RCC_AHBRSTR_OTGFSRST) || defined(RCC_AHBRSTR_ETHMACRST)
  63:Drivers/STM32F1xx_HAL_Driver/Inc/stm32f1xx_ll_bus.h **** #define RCC_AHBRSTR_SUPPORT
  64:Drivers/STM32F1xx_HAL_Driver/Inc/stm32f1xx_ll_bus.h **** #endif /* RCC_AHBRSTR_OTGFSRST || RCC_AHBRSTR_ETHMACRST */
  65:Drivers/STM32F1xx_HAL_Driver/Inc/stm32f1xx_ll_bus.h **** 
  66:Drivers/STM32F1xx_HAL_Driver/Inc/stm32f1xx_ll_bus.h **** /* Private macros ------------------------------------------------------------*/
  67:Drivers/STM32F1xx_HAL_Driver/Inc/stm32f1xx_ll_bus.h **** 
  68:Drivers/STM32F1xx_HAL_Driver/Inc/stm32f1xx_ll_bus.h **** /* Exported types ------------------------------------------------------------*/
  69:Drivers/STM32F1xx_HAL_Driver/Inc/stm32f1xx_ll_bus.h **** /* Exported constants --------------------------------------------------------*/
  70:Drivers/STM32F1xx_HAL_Driver/Inc/stm32f1xx_ll_bus.h **** /** @defgroup BUS_LL_Exported_Constants BUS Exported Constants
  71:Drivers/STM32F1xx_HAL_Driver/Inc/stm32f1xx_ll_bus.h ****   * @{
  72:Drivers/STM32F1xx_HAL_Driver/Inc/stm32f1xx_ll_bus.h ****   */
  73:Drivers/STM32F1xx_HAL_Driver/Inc/stm32f1xx_ll_bus.h **** 
  74:Drivers/STM32F1xx_HAL_Driver/Inc/stm32f1xx_ll_bus.h **** /** @defgroup BUS_LL_EC_AHB1_GRP1_PERIPH  AHB1 GRP1 PERIPH
  75:Drivers/STM32F1xx_HAL_Driver/Inc/stm32f1xx_ll_bus.h ****   * @{
  76:Drivers/STM32F1xx_HAL_Driver/Inc/stm32f1xx_ll_bus.h ****   */
  77:Drivers/STM32F1xx_HAL_Driver/Inc/stm32f1xx_ll_bus.h **** #define LL_AHB1_GRP1_PERIPH_ALL            (uint32_t)0xFFFFFFFFU
  78:Drivers/STM32F1xx_HAL_Driver/Inc/stm32f1xx_ll_bus.h **** #define LL_AHB1_GRP1_PERIPH_CRC            RCC_AHBENR_CRCEN
  79:Drivers/STM32F1xx_HAL_Driver/Inc/stm32f1xx_ll_bus.h **** #define LL_AHB1_GRP1_PERIPH_DMA1           RCC_AHBENR_DMA1EN
  80:Drivers/STM32F1xx_HAL_Driver/Inc/stm32f1xx_ll_bus.h **** #if defined(DMA2)
  81:Drivers/STM32F1xx_HAL_Driver/Inc/stm32f1xx_ll_bus.h **** #define LL_AHB1_GRP1_PERIPH_DMA2           RCC_AHBENR_DMA2EN
  82:Drivers/STM32F1xx_HAL_Driver/Inc/stm32f1xx_ll_bus.h **** #endif /*DMA2*/
  83:Drivers/STM32F1xx_HAL_Driver/Inc/stm32f1xx_ll_bus.h **** #if defined(ETH)
  84:Drivers/STM32F1xx_HAL_Driver/Inc/stm32f1xx_ll_bus.h **** #define LL_AHB1_GRP1_PERIPH_ETHMAC         RCC_AHBENR_ETHMACEN
  85:Drivers/STM32F1xx_HAL_Driver/Inc/stm32f1xx_ll_bus.h **** #define LL_AHB1_GRP1_PERIPH_ETHMACRX       RCC_AHBENR_ETHMACRXEN
  86:Drivers/STM32F1xx_HAL_Driver/Inc/stm32f1xx_ll_bus.h **** #define LL_AHB1_GRP1_PERIPH_ETHMACTX       RCC_AHBENR_ETHMACTXEN
  87:Drivers/STM32F1xx_HAL_Driver/Inc/stm32f1xx_ll_bus.h **** #endif /*ETH*/
  88:Drivers/STM32F1xx_HAL_Driver/Inc/stm32f1xx_ll_bus.h **** #define LL_AHB1_GRP1_PERIPH_FLASH          RCC_AHBENR_FLITFEN
  89:Drivers/STM32F1xx_HAL_Driver/Inc/stm32f1xx_ll_bus.h **** #if defined(FSMC_Bank1)
  90:Drivers/STM32F1xx_HAL_Driver/Inc/stm32f1xx_ll_bus.h **** #define LL_AHB1_GRP1_PERIPH_FSMC           RCC_AHBENR_FSMCEN
  91:Drivers/STM32F1xx_HAL_Driver/Inc/stm32f1xx_ll_bus.h **** #endif /*FSMC_Bank1*/
  92:Drivers/STM32F1xx_HAL_Driver/Inc/stm32f1xx_ll_bus.h **** #if defined(USB_OTG_FS)
  93:Drivers/STM32F1xx_HAL_Driver/Inc/stm32f1xx_ll_bus.h **** #define LL_AHB1_GRP1_PERIPH_OTGFS          RCC_AHBENR_OTGFSEN
  94:Drivers/STM32F1xx_HAL_Driver/Inc/stm32f1xx_ll_bus.h **** #endif /*USB_OTG_FS*/
  95:Drivers/STM32F1xx_HAL_Driver/Inc/stm32f1xx_ll_bus.h **** #if defined(SDIO)
  96:Drivers/STM32F1xx_HAL_Driver/Inc/stm32f1xx_ll_bus.h **** #define LL_AHB1_GRP1_PERIPH_SDIO           RCC_AHBENR_SDIOEN
  97:Drivers/STM32F1xx_HAL_Driver/Inc/stm32f1xx_ll_bus.h **** #endif /*SDIO*/
  98:Drivers/STM32F1xx_HAL_Driver/Inc/stm32f1xx_ll_bus.h **** #define LL_AHB1_GRP1_PERIPH_SRAM           RCC_AHBENR_SRAMEN
  99:Drivers/STM32F1xx_HAL_Driver/Inc/stm32f1xx_ll_bus.h **** /**
 100:Drivers/STM32F1xx_HAL_Driver/Inc/stm32f1xx_ll_bus.h ****   * @}
 101:Drivers/STM32F1xx_HAL_Driver/Inc/stm32f1xx_ll_bus.h ****   */
 102:Drivers/STM32F1xx_HAL_Driver/Inc/stm32f1xx_ll_bus.h **** 
 103:Drivers/STM32F1xx_HAL_Driver/Inc/stm32f1xx_ll_bus.h **** /** @defgroup BUS_LL_EC_APB1_GRP1_PERIPH  APB1 GRP1 PERIPH
 104:Drivers/STM32F1xx_HAL_Driver/Inc/stm32f1xx_ll_bus.h ****   * @{
 105:Drivers/STM32F1xx_HAL_Driver/Inc/stm32f1xx_ll_bus.h ****   */
 106:Drivers/STM32F1xx_HAL_Driver/Inc/stm32f1xx_ll_bus.h **** #define LL_APB1_GRP1_PERIPH_ALL            (uint32_t)0xFFFFFFFFU
 107:Drivers/STM32F1xx_HAL_Driver/Inc/stm32f1xx_ll_bus.h **** #define LL_APB1_GRP1_PERIPH_BKP            RCC_APB1ENR_BKPEN
 108:Drivers/STM32F1xx_HAL_Driver/Inc/stm32f1xx_ll_bus.h **** #if defined(CAN1)
 109:Drivers/STM32F1xx_HAL_Driver/Inc/stm32f1xx_ll_bus.h **** #define LL_APB1_GRP1_PERIPH_CAN1           RCC_APB1ENR_CAN1EN
ARM GAS  /tmp/ccSSjYDs.s 			page 6


 110:Drivers/STM32F1xx_HAL_Driver/Inc/stm32f1xx_ll_bus.h **** #endif /*CAN1*/
 111:Drivers/STM32F1xx_HAL_Driver/Inc/stm32f1xx_ll_bus.h **** #if defined(CAN2)
 112:Drivers/STM32F1xx_HAL_Driver/Inc/stm32f1xx_ll_bus.h **** #define LL_APB1_GRP1_PERIPH_CAN2           RCC_APB1ENR_CAN2EN
 113:Drivers/STM32F1xx_HAL_Driver/Inc/stm32f1xx_ll_bus.h **** #endif /*CAN2*/
 114:Drivers/STM32F1xx_HAL_Driver/Inc/stm32f1xx_ll_bus.h **** #if defined(CEC)
 115:Drivers/STM32F1xx_HAL_Driver/Inc/stm32f1xx_ll_bus.h **** #define LL_APB1_GRP1_PERIPH_CEC            RCC_APB1ENR_CECEN
 116:Drivers/STM32F1xx_HAL_Driver/Inc/stm32f1xx_ll_bus.h **** #endif /*CEC*/
 117:Drivers/STM32F1xx_HAL_Driver/Inc/stm32f1xx_ll_bus.h **** #if defined(DAC)
 118:Drivers/STM32F1xx_HAL_Driver/Inc/stm32f1xx_ll_bus.h **** #define LL_APB1_GRP1_PERIPH_DAC1           RCC_APB1ENR_DACEN
 119:Drivers/STM32F1xx_HAL_Driver/Inc/stm32f1xx_ll_bus.h **** #endif /*DAC*/
 120:Drivers/STM32F1xx_HAL_Driver/Inc/stm32f1xx_ll_bus.h **** #define LL_APB1_GRP1_PERIPH_I2C1           RCC_APB1ENR_I2C1EN
 121:Drivers/STM32F1xx_HAL_Driver/Inc/stm32f1xx_ll_bus.h **** #if defined(I2C2)
 122:Drivers/STM32F1xx_HAL_Driver/Inc/stm32f1xx_ll_bus.h **** #define LL_APB1_GRP1_PERIPH_I2C2           RCC_APB1ENR_I2C2EN
 123:Drivers/STM32F1xx_HAL_Driver/Inc/stm32f1xx_ll_bus.h **** #endif /*I2C2*/
 124:Drivers/STM32F1xx_HAL_Driver/Inc/stm32f1xx_ll_bus.h **** #define LL_APB1_GRP1_PERIPH_PWR            RCC_APB1ENR_PWREN
 125:Drivers/STM32F1xx_HAL_Driver/Inc/stm32f1xx_ll_bus.h **** #if defined(SPI2)
 126:Drivers/STM32F1xx_HAL_Driver/Inc/stm32f1xx_ll_bus.h **** #define LL_APB1_GRP1_PERIPH_SPI2           RCC_APB1ENR_SPI2EN
 127:Drivers/STM32F1xx_HAL_Driver/Inc/stm32f1xx_ll_bus.h **** #endif /*SPI2*/
 128:Drivers/STM32F1xx_HAL_Driver/Inc/stm32f1xx_ll_bus.h **** #if defined(SPI3)
 129:Drivers/STM32F1xx_HAL_Driver/Inc/stm32f1xx_ll_bus.h **** #define LL_APB1_GRP1_PERIPH_SPI3           RCC_APB1ENR_SPI3EN
 130:Drivers/STM32F1xx_HAL_Driver/Inc/stm32f1xx_ll_bus.h **** #endif /*SPI3*/
 131:Drivers/STM32F1xx_HAL_Driver/Inc/stm32f1xx_ll_bus.h **** #if defined(TIM12)
 132:Drivers/STM32F1xx_HAL_Driver/Inc/stm32f1xx_ll_bus.h **** #define LL_APB1_GRP1_PERIPH_TIM12          RCC_APB1ENR_TIM12EN
 133:Drivers/STM32F1xx_HAL_Driver/Inc/stm32f1xx_ll_bus.h **** #endif /*TIM12*/
 134:Drivers/STM32F1xx_HAL_Driver/Inc/stm32f1xx_ll_bus.h **** #if defined(TIM13)
 135:Drivers/STM32F1xx_HAL_Driver/Inc/stm32f1xx_ll_bus.h **** #define LL_APB1_GRP1_PERIPH_TIM13          RCC_APB1ENR_TIM13EN
 136:Drivers/STM32F1xx_HAL_Driver/Inc/stm32f1xx_ll_bus.h **** #endif /*TIM13*/
 137:Drivers/STM32F1xx_HAL_Driver/Inc/stm32f1xx_ll_bus.h **** #if defined(TIM14)
 138:Drivers/STM32F1xx_HAL_Driver/Inc/stm32f1xx_ll_bus.h **** #define LL_APB1_GRP1_PERIPH_TIM14          RCC_APB1ENR_TIM14EN
 139:Drivers/STM32F1xx_HAL_Driver/Inc/stm32f1xx_ll_bus.h **** #endif /*TIM14*/
 140:Drivers/STM32F1xx_HAL_Driver/Inc/stm32f1xx_ll_bus.h **** #define LL_APB1_GRP1_PERIPH_TIM2           RCC_APB1ENR_TIM2EN
 141:Drivers/STM32F1xx_HAL_Driver/Inc/stm32f1xx_ll_bus.h **** #define LL_APB1_GRP1_PERIPH_TIM3           RCC_APB1ENR_TIM3EN
 142:Drivers/STM32F1xx_HAL_Driver/Inc/stm32f1xx_ll_bus.h **** #if defined(TIM4)
 143:Drivers/STM32F1xx_HAL_Driver/Inc/stm32f1xx_ll_bus.h **** #define LL_APB1_GRP1_PERIPH_TIM4           RCC_APB1ENR_TIM4EN
 144:Drivers/STM32F1xx_HAL_Driver/Inc/stm32f1xx_ll_bus.h **** #endif /*TIM4*/
 145:Drivers/STM32F1xx_HAL_Driver/Inc/stm32f1xx_ll_bus.h **** #if defined(TIM5)
 146:Drivers/STM32F1xx_HAL_Driver/Inc/stm32f1xx_ll_bus.h **** #define LL_APB1_GRP1_PERIPH_TIM5           RCC_APB1ENR_TIM5EN
 147:Drivers/STM32F1xx_HAL_Driver/Inc/stm32f1xx_ll_bus.h **** #endif /*TIM5*/
 148:Drivers/STM32F1xx_HAL_Driver/Inc/stm32f1xx_ll_bus.h **** #if defined(TIM6)
 149:Drivers/STM32F1xx_HAL_Driver/Inc/stm32f1xx_ll_bus.h **** #define LL_APB1_GRP1_PERIPH_TIM6           RCC_APB1ENR_TIM6EN
 150:Drivers/STM32F1xx_HAL_Driver/Inc/stm32f1xx_ll_bus.h **** #endif /*TIM6*/
 151:Drivers/STM32F1xx_HAL_Driver/Inc/stm32f1xx_ll_bus.h **** #if defined(TIM7)
 152:Drivers/STM32F1xx_HAL_Driver/Inc/stm32f1xx_ll_bus.h **** #define LL_APB1_GRP1_PERIPH_TIM7           RCC_APB1ENR_TIM7EN
 153:Drivers/STM32F1xx_HAL_Driver/Inc/stm32f1xx_ll_bus.h **** #endif /*TIM7*/
 154:Drivers/STM32F1xx_HAL_Driver/Inc/stm32f1xx_ll_bus.h **** #if defined(UART4)
 155:Drivers/STM32F1xx_HAL_Driver/Inc/stm32f1xx_ll_bus.h **** #define LL_APB1_GRP1_PERIPH_UART4          RCC_APB1ENR_UART4EN
 156:Drivers/STM32F1xx_HAL_Driver/Inc/stm32f1xx_ll_bus.h **** #endif /*UART4*/
 157:Drivers/STM32F1xx_HAL_Driver/Inc/stm32f1xx_ll_bus.h **** #if defined(UART5)
 158:Drivers/STM32F1xx_HAL_Driver/Inc/stm32f1xx_ll_bus.h **** #define LL_APB1_GRP1_PERIPH_UART5          RCC_APB1ENR_UART5EN
 159:Drivers/STM32F1xx_HAL_Driver/Inc/stm32f1xx_ll_bus.h **** #endif /*UART5*/
 160:Drivers/STM32F1xx_HAL_Driver/Inc/stm32f1xx_ll_bus.h **** #define LL_APB1_GRP1_PERIPH_USART2         RCC_APB1ENR_USART2EN
 161:Drivers/STM32F1xx_HAL_Driver/Inc/stm32f1xx_ll_bus.h **** #if defined(USART3)
 162:Drivers/STM32F1xx_HAL_Driver/Inc/stm32f1xx_ll_bus.h **** #define LL_APB1_GRP1_PERIPH_USART3         RCC_APB1ENR_USART3EN
 163:Drivers/STM32F1xx_HAL_Driver/Inc/stm32f1xx_ll_bus.h **** #endif /*USART3*/
 164:Drivers/STM32F1xx_HAL_Driver/Inc/stm32f1xx_ll_bus.h **** #if defined(USB)
 165:Drivers/STM32F1xx_HAL_Driver/Inc/stm32f1xx_ll_bus.h **** #define LL_APB1_GRP1_PERIPH_USB            RCC_APB1ENR_USBEN
 166:Drivers/STM32F1xx_HAL_Driver/Inc/stm32f1xx_ll_bus.h **** #endif /*USB*/
ARM GAS  /tmp/ccSSjYDs.s 			page 7


 167:Drivers/STM32F1xx_HAL_Driver/Inc/stm32f1xx_ll_bus.h **** #define LL_APB1_GRP1_PERIPH_WWDG           RCC_APB1ENR_WWDGEN
 168:Drivers/STM32F1xx_HAL_Driver/Inc/stm32f1xx_ll_bus.h **** /**
 169:Drivers/STM32F1xx_HAL_Driver/Inc/stm32f1xx_ll_bus.h ****   * @}
 170:Drivers/STM32F1xx_HAL_Driver/Inc/stm32f1xx_ll_bus.h ****   */
 171:Drivers/STM32F1xx_HAL_Driver/Inc/stm32f1xx_ll_bus.h **** 
 172:Drivers/STM32F1xx_HAL_Driver/Inc/stm32f1xx_ll_bus.h **** /** @defgroup BUS_LL_EC_APB2_GRP1_PERIPH  APB2 GRP1 PERIPH
 173:Drivers/STM32F1xx_HAL_Driver/Inc/stm32f1xx_ll_bus.h ****   * @{
 174:Drivers/STM32F1xx_HAL_Driver/Inc/stm32f1xx_ll_bus.h ****   */
 175:Drivers/STM32F1xx_HAL_Driver/Inc/stm32f1xx_ll_bus.h **** #define LL_APB2_GRP1_PERIPH_ALL            (uint32_t)0xFFFFFFFFU
 176:Drivers/STM32F1xx_HAL_Driver/Inc/stm32f1xx_ll_bus.h **** #define LL_APB2_GRP1_PERIPH_ADC1           RCC_APB2ENR_ADC1EN
 177:Drivers/STM32F1xx_HAL_Driver/Inc/stm32f1xx_ll_bus.h **** #if defined(ADC2)
 178:Drivers/STM32F1xx_HAL_Driver/Inc/stm32f1xx_ll_bus.h **** #define LL_APB2_GRP1_PERIPH_ADC2           RCC_APB2ENR_ADC2EN
 179:Drivers/STM32F1xx_HAL_Driver/Inc/stm32f1xx_ll_bus.h **** #endif /*ADC2*/
 180:Drivers/STM32F1xx_HAL_Driver/Inc/stm32f1xx_ll_bus.h **** #if defined(ADC3)
 181:Drivers/STM32F1xx_HAL_Driver/Inc/stm32f1xx_ll_bus.h **** #define LL_APB2_GRP1_PERIPH_ADC3           RCC_APB2ENR_ADC3EN
 182:Drivers/STM32F1xx_HAL_Driver/Inc/stm32f1xx_ll_bus.h **** #endif /*ADC3*/
 183:Drivers/STM32F1xx_HAL_Driver/Inc/stm32f1xx_ll_bus.h **** #define LL_APB2_GRP1_PERIPH_AFIO           RCC_APB2ENR_AFIOEN
 184:Drivers/STM32F1xx_HAL_Driver/Inc/stm32f1xx_ll_bus.h **** #define LL_APB2_GRP1_PERIPH_GPIOA          RCC_APB2ENR_IOPAEN
 185:Drivers/STM32F1xx_HAL_Driver/Inc/stm32f1xx_ll_bus.h **** #define LL_APB2_GRP1_PERIPH_GPIOB          RCC_APB2ENR_IOPBEN
 186:Drivers/STM32F1xx_HAL_Driver/Inc/stm32f1xx_ll_bus.h **** #define LL_APB2_GRP1_PERIPH_GPIOC          RCC_APB2ENR_IOPCEN
 187:Drivers/STM32F1xx_HAL_Driver/Inc/stm32f1xx_ll_bus.h **** #define LL_APB2_GRP1_PERIPH_GPIOD          RCC_APB2ENR_IOPDEN
 188:Drivers/STM32F1xx_HAL_Driver/Inc/stm32f1xx_ll_bus.h **** #if defined(GPIOE)
 189:Drivers/STM32F1xx_HAL_Driver/Inc/stm32f1xx_ll_bus.h **** #define LL_APB2_GRP1_PERIPH_GPIOE          RCC_APB2ENR_IOPEEN
 190:Drivers/STM32F1xx_HAL_Driver/Inc/stm32f1xx_ll_bus.h **** #endif /*GPIOE*/
 191:Drivers/STM32F1xx_HAL_Driver/Inc/stm32f1xx_ll_bus.h **** #if defined(GPIOF)
 192:Drivers/STM32F1xx_HAL_Driver/Inc/stm32f1xx_ll_bus.h **** #define LL_APB2_GRP1_PERIPH_GPIOF          RCC_APB2ENR_IOPFEN
 193:Drivers/STM32F1xx_HAL_Driver/Inc/stm32f1xx_ll_bus.h **** #endif /*GPIOF*/
 194:Drivers/STM32F1xx_HAL_Driver/Inc/stm32f1xx_ll_bus.h **** #if defined(GPIOG)
 195:Drivers/STM32F1xx_HAL_Driver/Inc/stm32f1xx_ll_bus.h **** #define LL_APB2_GRP1_PERIPH_GPIOG          RCC_APB2ENR_IOPGEN
 196:Drivers/STM32F1xx_HAL_Driver/Inc/stm32f1xx_ll_bus.h **** #endif /*GPIOG*/
 197:Drivers/STM32F1xx_HAL_Driver/Inc/stm32f1xx_ll_bus.h **** #define LL_APB2_GRP1_PERIPH_SPI1           RCC_APB2ENR_SPI1EN
 198:Drivers/STM32F1xx_HAL_Driver/Inc/stm32f1xx_ll_bus.h **** #if defined(TIM10)
 199:Drivers/STM32F1xx_HAL_Driver/Inc/stm32f1xx_ll_bus.h **** #define LL_APB2_GRP1_PERIPH_TIM10          RCC_APB2ENR_TIM10EN
 200:Drivers/STM32F1xx_HAL_Driver/Inc/stm32f1xx_ll_bus.h **** #endif /*TIM10*/
 201:Drivers/STM32F1xx_HAL_Driver/Inc/stm32f1xx_ll_bus.h **** #if defined(TIM11)
 202:Drivers/STM32F1xx_HAL_Driver/Inc/stm32f1xx_ll_bus.h **** #define LL_APB2_GRP1_PERIPH_TIM11          RCC_APB2ENR_TIM11EN
 203:Drivers/STM32F1xx_HAL_Driver/Inc/stm32f1xx_ll_bus.h **** #endif /*TIM11*/
 204:Drivers/STM32F1xx_HAL_Driver/Inc/stm32f1xx_ll_bus.h **** #if defined(TIM15)
 205:Drivers/STM32F1xx_HAL_Driver/Inc/stm32f1xx_ll_bus.h **** #define LL_APB2_GRP1_PERIPH_TIM15          RCC_APB2ENR_TIM15EN
 206:Drivers/STM32F1xx_HAL_Driver/Inc/stm32f1xx_ll_bus.h **** #endif /*TIM15*/
 207:Drivers/STM32F1xx_HAL_Driver/Inc/stm32f1xx_ll_bus.h **** #if defined(TIM16)
 208:Drivers/STM32F1xx_HAL_Driver/Inc/stm32f1xx_ll_bus.h **** #define LL_APB2_GRP1_PERIPH_TIM16          RCC_APB2ENR_TIM16EN
 209:Drivers/STM32F1xx_HAL_Driver/Inc/stm32f1xx_ll_bus.h **** #endif /*TIM16*/
 210:Drivers/STM32F1xx_HAL_Driver/Inc/stm32f1xx_ll_bus.h **** #if defined(TIM17)
 211:Drivers/STM32F1xx_HAL_Driver/Inc/stm32f1xx_ll_bus.h **** #define LL_APB2_GRP1_PERIPH_TIM17          RCC_APB2ENR_TIM17EN
 212:Drivers/STM32F1xx_HAL_Driver/Inc/stm32f1xx_ll_bus.h **** #endif /*TIM17*/
 213:Drivers/STM32F1xx_HAL_Driver/Inc/stm32f1xx_ll_bus.h **** #define LL_APB2_GRP1_PERIPH_TIM1           RCC_APB2ENR_TIM1EN
 214:Drivers/STM32F1xx_HAL_Driver/Inc/stm32f1xx_ll_bus.h **** #if defined(TIM8)
 215:Drivers/STM32F1xx_HAL_Driver/Inc/stm32f1xx_ll_bus.h **** #define LL_APB2_GRP1_PERIPH_TIM8           RCC_APB2ENR_TIM8EN
 216:Drivers/STM32F1xx_HAL_Driver/Inc/stm32f1xx_ll_bus.h **** #endif /*TIM8*/
 217:Drivers/STM32F1xx_HAL_Driver/Inc/stm32f1xx_ll_bus.h **** #if defined(TIM9)
 218:Drivers/STM32F1xx_HAL_Driver/Inc/stm32f1xx_ll_bus.h **** #define LL_APB2_GRP1_PERIPH_TIM9           RCC_APB2ENR_TIM9EN
 219:Drivers/STM32F1xx_HAL_Driver/Inc/stm32f1xx_ll_bus.h **** #endif /*TIM9*/
 220:Drivers/STM32F1xx_HAL_Driver/Inc/stm32f1xx_ll_bus.h **** #define LL_APB2_GRP1_PERIPH_USART1         RCC_APB2ENR_USART1EN
 221:Drivers/STM32F1xx_HAL_Driver/Inc/stm32f1xx_ll_bus.h **** /**
 222:Drivers/STM32F1xx_HAL_Driver/Inc/stm32f1xx_ll_bus.h ****   * @}
 223:Drivers/STM32F1xx_HAL_Driver/Inc/stm32f1xx_ll_bus.h ****   */
ARM GAS  /tmp/ccSSjYDs.s 			page 8


 224:Drivers/STM32F1xx_HAL_Driver/Inc/stm32f1xx_ll_bus.h **** 
 225:Drivers/STM32F1xx_HAL_Driver/Inc/stm32f1xx_ll_bus.h **** /**
 226:Drivers/STM32F1xx_HAL_Driver/Inc/stm32f1xx_ll_bus.h ****   * @}
 227:Drivers/STM32F1xx_HAL_Driver/Inc/stm32f1xx_ll_bus.h ****   */
 228:Drivers/STM32F1xx_HAL_Driver/Inc/stm32f1xx_ll_bus.h **** 
 229:Drivers/STM32F1xx_HAL_Driver/Inc/stm32f1xx_ll_bus.h **** /* Exported macro ------------------------------------------------------------*/
 230:Drivers/STM32F1xx_HAL_Driver/Inc/stm32f1xx_ll_bus.h **** 
 231:Drivers/STM32F1xx_HAL_Driver/Inc/stm32f1xx_ll_bus.h **** /* Exported functions --------------------------------------------------------*/
 232:Drivers/STM32F1xx_HAL_Driver/Inc/stm32f1xx_ll_bus.h **** /** @defgroup BUS_LL_Exported_Functions BUS Exported Functions
 233:Drivers/STM32F1xx_HAL_Driver/Inc/stm32f1xx_ll_bus.h ****   * @{
 234:Drivers/STM32F1xx_HAL_Driver/Inc/stm32f1xx_ll_bus.h ****   */
 235:Drivers/STM32F1xx_HAL_Driver/Inc/stm32f1xx_ll_bus.h **** 
 236:Drivers/STM32F1xx_HAL_Driver/Inc/stm32f1xx_ll_bus.h **** /** @defgroup BUS_LL_EF_AHB1 AHB1
 237:Drivers/STM32F1xx_HAL_Driver/Inc/stm32f1xx_ll_bus.h ****   * @{
 238:Drivers/STM32F1xx_HAL_Driver/Inc/stm32f1xx_ll_bus.h ****   */
 239:Drivers/STM32F1xx_HAL_Driver/Inc/stm32f1xx_ll_bus.h **** 
 240:Drivers/STM32F1xx_HAL_Driver/Inc/stm32f1xx_ll_bus.h **** /**
 241:Drivers/STM32F1xx_HAL_Driver/Inc/stm32f1xx_ll_bus.h ****   * @brief  Enable AHB1 peripherals clock.
 242:Drivers/STM32F1xx_HAL_Driver/Inc/stm32f1xx_ll_bus.h ****   * @rmtoll AHBENR       CRCEN         LL_AHB1_GRP1_EnableClock\n
 243:Drivers/STM32F1xx_HAL_Driver/Inc/stm32f1xx_ll_bus.h ****   *         AHBENR       DMA1EN        LL_AHB1_GRP1_EnableClock\n
 244:Drivers/STM32F1xx_HAL_Driver/Inc/stm32f1xx_ll_bus.h ****   *         AHBENR       DMA2EN        LL_AHB1_GRP1_EnableClock\n
 245:Drivers/STM32F1xx_HAL_Driver/Inc/stm32f1xx_ll_bus.h ****   *         AHBENR       ETHMACEN      LL_AHB1_GRP1_EnableClock\n
 246:Drivers/STM32F1xx_HAL_Driver/Inc/stm32f1xx_ll_bus.h ****   *         AHBENR       ETHMACRXEN    LL_AHB1_GRP1_EnableClock\n
 247:Drivers/STM32F1xx_HAL_Driver/Inc/stm32f1xx_ll_bus.h ****   *         AHBENR       ETHMACTXEN    LL_AHB1_GRP1_EnableClock\n
 248:Drivers/STM32F1xx_HAL_Driver/Inc/stm32f1xx_ll_bus.h ****   *         AHBENR       FLITFEN       LL_AHB1_GRP1_EnableClock\n
 249:Drivers/STM32F1xx_HAL_Driver/Inc/stm32f1xx_ll_bus.h ****   *         AHBENR       FSMCEN        LL_AHB1_GRP1_EnableClock\n
 250:Drivers/STM32F1xx_HAL_Driver/Inc/stm32f1xx_ll_bus.h ****   *         AHBENR       OTGFSEN       LL_AHB1_GRP1_EnableClock\n
 251:Drivers/STM32F1xx_HAL_Driver/Inc/stm32f1xx_ll_bus.h ****   *         AHBENR       SDIOEN        LL_AHB1_GRP1_EnableClock\n
 252:Drivers/STM32F1xx_HAL_Driver/Inc/stm32f1xx_ll_bus.h ****   *         AHBENR       SRAMEN        LL_AHB1_GRP1_EnableClock
 253:Drivers/STM32F1xx_HAL_Driver/Inc/stm32f1xx_ll_bus.h ****   * @param  Periphs This parameter can be a combination of the following values:
 254:Drivers/STM32F1xx_HAL_Driver/Inc/stm32f1xx_ll_bus.h ****   *         @arg @ref LL_AHB1_GRP1_PERIPH_CRC
 255:Drivers/STM32F1xx_HAL_Driver/Inc/stm32f1xx_ll_bus.h ****   *         @arg @ref LL_AHB1_GRP1_PERIPH_DMA1
 256:Drivers/STM32F1xx_HAL_Driver/Inc/stm32f1xx_ll_bus.h ****   *         @arg @ref LL_AHB1_GRP1_PERIPH_DMA2 (*)
 257:Drivers/STM32F1xx_HAL_Driver/Inc/stm32f1xx_ll_bus.h ****   *         @arg @ref LL_AHB1_GRP1_PERIPH_ETHMAC (*)
 258:Drivers/STM32F1xx_HAL_Driver/Inc/stm32f1xx_ll_bus.h ****   *         @arg @ref LL_AHB1_GRP1_PERIPH_ETHMACRX (*)
 259:Drivers/STM32F1xx_HAL_Driver/Inc/stm32f1xx_ll_bus.h ****   *         @arg @ref LL_AHB1_GRP1_PERIPH_ETHMACTX (*)
 260:Drivers/STM32F1xx_HAL_Driver/Inc/stm32f1xx_ll_bus.h ****   *         @arg @ref LL_AHB1_GRP1_PERIPH_FLASH
 261:Drivers/STM32F1xx_HAL_Driver/Inc/stm32f1xx_ll_bus.h ****   *         @arg @ref LL_AHB1_GRP1_PERIPH_FSMC (*)
 262:Drivers/STM32F1xx_HAL_Driver/Inc/stm32f1xx_ll_bus.h ****   *         @arg @ref LL_AHB1_GRP1_PERIPH_OTGFS (*)
 263:Drivers/STM32F1xx_HAL_Driver/Inc/stm32f1xx_ll_bus.h ****   *         @arg @ref LL_AHB1_GRP1_PERIPH_SDIO (*)
 264:Drivers/STM32F1xx_HAL_Driver/Inc/stm32f1xx_ll_bus.h ****   *         @arg @ref LL_AHB1_GRP1_PERIPH_SRAM
 265:Drivers/STM32F1xx_HAL_Driver/Inc/stm32f1xx_ll_bus.h ****   *
 266:Drivers/STM32F1xx_HAL_Driver/Inc/stm32f1xx_ll_bus.h ****   *         (*) value not defined in all devices.
 267:Drivers/STM32F1xx_HAL_Driver/Inc/stm32f1xx_ll_bus.h ****   * @retval None
 268:Drivers/STM32F1xx_HAL_Driver/Inc/stm32f1xx_ll_bus.h **** */
 269:Drivers/STM32F1xx_HAL_Driver/Inc/stm32f1xx_ll_bus.h **** __STATIC_INLINE void LL_AHB1_GRP1_EnableClock(uint32_t Periphs)
 270:Drivers/STM32F1xx_HAL_Driver/Inc/stm32f1xx_ll_bus.h **** {
 271:Drivers/STM32F1xx_HAL_Driver/Inc/stm32f1xx_ll_bus.h ****   __IO uint32_t tmpreg;
 272:Drivers/STM32F1xx_HAL_Driver/Inc/stm32f1xx_ll_bus.h ****   SET_BIT(RCC->AHBENR, Periphs);
 273:Drivers/STM32F1xx_HAL_Driver/Inc/stm32f1xx_ll_bus.h ****   /* Delay after an RCC peripheral clock enabling */
 274:Drivers/STM32F1xx_HAL_Driver/Inc/stm32f1xx_ll_bus.h ****   tmpreg = READ_BIT(RCC->AHBENR, Periphs);
 275:Drivers/STM32F1xx_HAL_Driver/Inc/stm32f1xx_ll_bus.h ****   (void)tmpreg;
 276:Drivers/STM32F1xx_HAL_Driver/Inc/stm32f1xx_ll_bus.h **** }
 277:Drivers/STM32F1xx_HAL_Driver/Inc/stm32f1xx_ll_bus.h **** 
 278:Drivers/STM32F1xx_HAL_Driver/Inc/stm32f1xx_ll_bus.h **** /**
 279:Drivers/STM32F1xx_HAL_Driver/Inc/stm32f1xx_ll_bus.h ****   * @brief  Check if AHB1 peripheral clock is enabled or not
 280:Drivers/STM32F1xx_HAL_Driver/Inc/stm32f1xx_ll_bus.h ****   * @rmtoll AHBENR       CRCEN         LL_AHB1_GRP1_IsEnabledClock\n
ARM GAS  /tmp/ccSSjYDs.s 			page 9


 281:Drivers/STM32F1xx_HAL_Driver/Inc/stm32f1xx_ll_bus.h ****   *         AHBENR       DMA1EN        LL_AHB1_GRP1_IsEnabledClock\n
 282:Drivers/STM32F1xx_HAL_Driver/Inc/stm32f1xx_ll_bus.h ****   *         AHBENR       DMA2EN        LL_AHB1_GRP1_IsEnabledClock\n
 283:Drivers/STM32F1xx_HAL_Driver/Inc/stm32f1xx_ll_bus.h ****   *         AHBENR       ETHMACEN      LL_AHB1_GRP1_IsEnabledClock\n
 284:Drivers/STM32F1xx_HAL_Driver/Inc/stm32f1xx_ll_bus.h ****   *         AHBENR       ETHMACRXEN    LL_AHB1_GRP1_IsEnabledClock\n
 285:Drivers/STM32F1xx_HAL_Driver/Inc/stm32f1xx_ll_bus.h ****   *         AHBENR       ETHMACTXEN    LL_AHB1_GRP1_IsEnabledClock\n
 286:Drivers/STM32F1xx_HAL_Driver/Inc/stm32f1xx_ll_bus.h ****   *         AHBENR       FLITFEN       LL_AHB1_GRP1_IsEnabledClock\n
 287:Drivers/STM32F1xx_HAL_Driver/Inc/stm32f1xx_ll_bus.h ****   *         AHBENR       FSMCEN        LL_AHB1_GRP1_IsEnabledClock\n
 288:Drivers/STM32F1xx_HAL_Driver/Inc/stm32f1xx_ll_bus.h ****   *         AHBENR       OTGFSEN       LL_AHB1_GRP1_IsEnabledClock\n
 289:Drivers/STM32F1xx_HAL_Driver/Inc/stm32f1xx_ll_bus.h ****   *         AHBENR       SDIOEN        LL_AHB1_GRP1_IsEnabledClock\n
 290:Drivers/STM32F1xx_HAL_Driver/Inc/stm32f1xx_ll_bus.h ****   *         AHBENR       SRAMEN        LL_AHB1_GRP1_IsEnabledClock
 291:Drivers/STM32F1xx_HAL_Driver/Inc/stm32f1xx_ll_bus.h ****   * @param  Periphs This parameter can be a combination of the following values:
 292:Drivers/STM32F1xx_HAL_Driver/Inc/stm32f1xx_ll_bus.h ****   *         @arg @ref LL_AHB1_GRP1_PERIPH_CRC
 293:Drivers/STM32F1xx_HAL_Driver/Inc/stm32f1xx_ll_bus.h ****   *         @arg @ref LL_AHB1_GRP1_PERIPH_DMA1
 294:Drivers/STM32F1xx_HAL_Driver/Inc/stm32f1xx_ll_bus.h ****   *         @arg @ref LL_AHB1_GRP1_PERIPH_DMA2 (*)
 295:Drivers/STM32F1xx_HAL_Driver/Inc/stm32f1xx_ll_bus.h ****   *         @arg @ref LL_AHB1_GRP1_PERIPH_ETHMAC (*)
 296:Drivers/STM32F1xx_HAL_Driver/Inc/stm32f1xx_ll_bus.h ****   *         @arg @ref LL_AHB1_GRP1_PERIPH_ETHMACRX (*)
 297:Drivers/STM32F1xx_HAL_Driver/Inc/stm32f1xx_ll_bus.h ****   *         @arg @ref LL_AHB1_GRP1_PERIPH_ETHMACTX (*)
 298:Drivers/STM32F1xx_HAL_Driver/Inc/stm32f1xx_ll_bus.h ****   *         @arg @ref LL_AHB1_GRP1_PERIPH_FLASH
 299:Drivers/STM32F1xx_HAL_Driver/Inc/stm32f1xx_ll_bus.h ****   *         @arg @ref LL_AHB1_GRP1_PERIPH_FSMC (*)
 300:Drivers/STM32F1xx_HAL_Driver/Inc/stm32f1xx_ll_bus.h ****   *         @arg @ref LL_AHB1_GRP1_PERIPH_OTGFS (*)
 301:Drivers/STM32F1xx_HAL_Driver/Inc/stm32f1xx_ll_bus.h ****   *         @arg @ref LL_AHB1_GRP1_PERIPH_SDIO (*)
 302:Drivers/STM32F1xx_HAL_Driver/Inc/stm32f1xx_ll_bus.h ****   *         @arg @ref LL_AHB1_GRP1_PERIPH_SRAM
 303:Drivers/STM32F1xx_HAL_Driver/Inc/stm32f1xx_ll_bus.h ****   *
 304:Drivers/STM32F1xx_HAL_Driver/Inc/stm32f1xx_ll_bus.h ****   *         (*) value not defined in all devices.
 305:Drivers/STM32F1xx_HAL_Driver/Inc/stm32f1xx_ll_bus.h ****   * @retval State of Periphs (1 or 0).
 306:Drivers/STM32F1xx_HAL_Driver/Inc/stm32f1xx_ll_bus.h **** */
 307:Drivers/STM32F1xx_HAL_Driver/Inc/stm32f1xx_ll_bus.h **** __STATIC_INLINE uint32_t LL_AHB1_GRP1_IsEnabledClock(uint32_t Periphs)
 308:Drivers/STM32F1xx_HAL_Driver/Inc/stm32f1xx_ll_bus.h **** {
 309:Drivers/STM32F1xx_HAL_Driver/Inc/stm32f1xx_ll_bus.h ****   return (READ_BIT(RCC->AHBENR, Periphs) == Periphs);
 310:Drivers/STM32F1xx_HAL_Driver/Inc/stm32f1xx_ll_bus.h **** }
 311:Drivers/STM32F1xx_HAL_Driver/Inc/stm32f1xx_ll_bus.h **** 
 312:Drivers/STM32F1xx_HAL_Driver/Inc/stm32f1xx_ll_bus.h **** /**
 313:Drivers/STM32F1xx_HAL_Driver/Inc/stm32f1xx_ll_bus.h ****   * @brief  Disable AHB1 peripherals clock.
 314:Drivers/STM32F1xx_HAL_Driver/Inc/stm32f1xx_ll_bus.h ****   * @rmtoll AHBENR       CRCEN         LL_AHB1_GRP1_DisableClock\n
 315:Drivers/STM32F1xx_HAL_Driver/Inc/stm32f1xx_ll_bus.h ****   *         AHBENR       DMA1EN        LL_AHB1_GRP1_DisableClock\n
 316:Drivers/STM32F1xx_HAL_Driver/Inc/stm32f1xx_ll_bus.h ****   *         AHBENR       DMA2EN        LL_AHB1_GRP1_DisableClock\n
 317:Drivers/STM32F1xx_HAL_Driver/Inc/stm32f1xx_ll_bus.h ****   *         AHBENR       ETHMACEN      LL_AHB1_GRP1_DisableClock\n
 318:Drivers/STM32F1xx_HAL_Driver/Inc/stm32f1xx_ll_bus.h ****   *         AHBENR       ETHMACRXEN    LL_AHB1_GRP1_DisableClock\n
 319:Drivers/STM32F1xx_HAL_Driver/Inc/stm32f1xx_ll_bus.h ****   *         AHBENR       ETHMACTXEN    LL_AHB1_GRP1_DisableClock\n
 320:Drivers/STM32F1xx_HAL_Driver/Inc/stm32f1xx_ll_bus.h ****   *         AHBENR       FLITFEN       LL_AHB1_GRP1_DisableClock\n
 321:Drivers/STM32F1xx_HAL_Driver/Inc/stm32f1xx_ll_bus.h ****   *         AHBENR       FSMCEN        LL_AHB1_GRP1_DisableClock\n
 322:Drivers/STM32F1xx_HAL_Driver/Inc/stm32f1xx_ll_bus.h ****   *         AHBENR       OTGFSEN       LL_AHB1_GRP1_DisableClock\n
 323:Drivers/STM32F1xx_HAL_Driver/Inc/stm32f1xx_ll_bus.h ****   *         AHBENR       SDIOEN        LL_AHB1_GRP1_DisableClock\n
 324:Drivers/STM32F1xx_HAL_Driver/Inc/stm32f1xx_ll_bus.h ****   *         AHBENR       SRAMEN        LL_AHB1_GRP1_DisableClock
 325:Drivers/STM32F1xx_HAL_Driver/Inc/stm32f1xx_ll_bus.h ****   * @param  Periphs This parameter can be a combination of the following values:
 326:Drivers/STM32F1xx_HAL_Driver/Inc/stm32f1xx_ll_bus.h ****   *         @arg @ref LL_AHB1_GRP1_PERIPH_CRC
 327:Drivers/STM32F1xx_HAL_Driver/Inc/stm32f1xx_ll_bus.h ****   *         @arg @ref LL_AHB1_GRP1_PERIPH_DMA1
 328:Drivers/STM32F1xx_HAL_Driver/Inc/stm32f1xx_ll_bus.h ****   *         @arg @ref LL_AHB1_GRP1_PERIPH_DMA2 (*)
 329:Drivers/STM32F1xx_HAL_Driver/Inc/stm32f1xx_ll_bus.h ****   *         @arg @ref LL_AHB1_GRP1_PERIPH_ETHMAC (*)
 330:Drivers/STM32F1xx_HAL_Driver/Inc/stm32f1xx_ll_bus.h ****   *         @arg @ref LL_AHB1_GRP1_PERIPH_ETHMACRX (*)
 331:Drivers/STM32F1xx_HAL_Driver/Inc/stm32f1xx_ll_bus.h ****   *         @arg @ref LL_AHB1_GRP1_PERIPH_ETHMACTX (*)
 332:Drivers/STM32F1xx_HAL_Driver/Inc/stm32f1xx_ll_bus.h ****   *         @arg @ref LL_AHB1_GRP1_PERIPH_FLASH
 333:Drivers/STM32F1xx_HAL_Driver/Inc/stm32f1xx_ll_bus.h ****   *         @arg @ref LL_AHB1_GRP1_PERIPH_FSMC (*)
 334:Drivers/STM32F1xx_HAL_Driver/Inc/stm32f1xx_ll_bus.h ****   *         @arg @ref LL_AHB1_GRP1_PERIPH_OTGFS (*)
 335:Drivers/STM32F1xx_HAL_Driver/Inc/stm32f1xx_ll_bus.h ****   *         @arg @ref LL_AHB1_GRP1_PERIPH_SDIO (*)
 336:Drivers/STM32F1xx_HAL_Driver/Inc/stm32f1xx_ll_bus.h ****   *         @arg @ref LL_AHB1_GRP1_PERIPH_SRAM
 337:Drivers/STM32F1xx_HAL_Driver/Inc/stm32f1xx_ll_bus.h ****   *
ARM GAS  /tmp/ccSSjYDs.s 			page 10


 338:Drivers/STM32F1xx_HAL_Driver/Inc/stm32f1xx_ll_bus.h ****   *         (*) value not defined in all devices.
 339:Drivers/STM32F1xx_HAL_Driver/Inc/stm32f1xx_ll_bus.h ****   * @retval None
 340:Drivers/STM32F1xx_HAL_Driver/Inc/stm32f1xx_ll_bus.h **** */
 341:Drivers/STM32F1xx_HAL_Driver/Inc/stm32f1xx_ll_bus.h **** __STATIC_INLINE void LL_AHB1_GRP1_DisableClock(uint32_t Periphs)
 342:Drivers/STM32F1xx_HAL_Driver/Inc/stm32f1xx_ll_bus.h **** {
 343:Drivers/STM32F1xx_HAL_Driver/Inc/stm32f1xx_ll_bus.h ****   CLEAR_BIT(RCC->AHBENR, Periphs);
 344:Drivers/STM32F1xx_HAL_Driver/Inc/stm32f1xx_ll_bus.h **** }
 345:Drivers/STM32F1xx_HAL_Driver/Inc/stm32f1xx_ll_bus.h **** 
 346:Drivers/STM32F1xx_HAL_Driver/Inc/stm32f1xx_ll_bus.h **** #if defined(RCC_AHBRSTR_SUPPORT)
 347:Drivers/STM32F1xx_HAL_Driver/Inc/stm32f1xx_ll_bus.h **** /**
 348:Drivers/STM32F1xx_HAL_Driver/Inc/stm32f1xx_ll_bus.h ****   * @brief  Force AHB1 peripherals reset.
 349:Drivers/STM32F1xx_HAL_Driver/Inc/stm32f1xx_ll_bus.h ****   * @rmtoll AHBRSTR      ETHMACRST     LL_AHB1_GRP1_ForceReset\n
 350:Drivers/STM32F1xx_HAL_Driver/Inc/stm32f1xx_ll_bus.h ****   *         AHBRSTR      OTGFSRST      LL_AHB1_GRP1_ForceReset
 351:Drivers/STM32F1xx_HAL_Driver/Inc/stm32f1xx_ll_bus.h ****   * @param  Periphs This parameter can be a combination of the following values:
 352:Drivers/STM32F1xx_HAL_Driver/Inc/stm32f1xx_ll_bus.h ****   *         @arg @ref LL_AHB1_GRP1_PERIPH_ALL
 353:Drivers/STM32F1xx_HAL_Driver/Inc/stm32f1xx_ll_bus.h ****   *         @arg @ref LL_AHB1_GRP1_PERIPH_ETHMAC (*)
 354:Drivers/STM32F1xx_HAL_Driver/Inc/stm32f1xx_ll_bus.h ****   *         @arg @ref LL_AHB1_GRP1_PERIPH_OTGFS (*)
 355:Drivers/STM32F1xx_HAL_Driver/Inc/stm32f1xx_ll_bus.h ****   *
 356:Drivers/STM32F1xx_HAL_Driver/Inc/stm32f1xx_ll_bus.h ****   *         (*) value not defined in all devices.
 357:Drivers/STM32F1xx_HAL_Driver/Inc/stm32f1xx_ll_bus.h ****   * @retval None
 358:Drivers/STM32F1xx_HAL_Driver/Inc/stm32f1xx_ll_bus.h **** */
 359:Drivers/STM32F1xx_HAL_Driver/Inc/stm32f1xx_ll_bus.h **** __STATIC_INLINE void LL_AHB1_GRP1_ForceReset(uint32_t Periphs)
 360:Drivers/STM32F1xx_HAL_Driver/Inc/stm32f1xx_ll_bus.h **** {
 361:Drivers/STM32F1xx_HAL_Driver/Inc/stm32f1xx_ll_bus.h ****   SET_BIT(RCC->AHBRSTR, Periphs);
 362:Drivers/STM32F1xx_HAL_Driver/Inc/stm32f1xx_ll_bus.h **** }
 363:Drivers/STM32F1xx_HAL_Driver/Inc/stm32f1xx_ll_bus.h **** 
 364:Drivers/STM32F1xx_HAL_Driver/Inc/stm32f1xx_ll_bus.h **** /**
 365:Drivers/STM32F1xx_HAL_Driver/Inc/stm32f1xx_ll_bus.h ****   * @brief  Release AHB1 peripherals reset.
 366:Drivers/STM32F1xx_HAL_Driver/Inc/stm32f1xx_ll_bus.h ****   * @rmtoll AHBRSTR      ETHMACRST     LL_AHB1_GRP1_ReleaseReset\n
 367:Drivers/STM32F1xx_HAL_Driver/Inc/stm32f1xx_ll_bus.h ****   *         AHBRSTR      OTGFSRST      LL_AHB1_GRP1_ReleaseReset
 368:Drivers/STM32F1xx_HAL_Driver/Inc/stm32f1xx_ll_bus.h ****   * @param  Periphs This parameter can be a combination of the following values:
 369:Drivers/STM32F1xx_HAL_Driver/Inc/stm32f1xx_ll_bus.h ****   *         @arg @ref LL_AHB1_GRP1_PERIPH_ALL
 370:Drivers/STM32F1xx_HAL_Driver/Inc/stm32f1xx_ll_bus.h ****   *         @arg @ref LL_AHB1_GRP1_PERIPH_ETHMAC (*)
 371:Drivers/STM32F1xx_HAL_Driver/Inc/stm32f1xx_ll_bus.h ****   *         @arg @ref LL_AHB1_GRP1_PERIPH_OTGFS (*)
 372:Drivers/STM32F1xx_HAL_Driver/Inc/stm32f1xx_ll_bus.h ****   *
 373:Drivers/STM32F1xx_HAL_Driver/Inc/stm32f1xx_ll_bus.h ****   *         (*) value not defined in all devices.
 374:Drivers/STM32F1xx_HAL_Driver/Inc/stm32f1xx_ll_bus.h ****   * @retval None
 375:Drivers/STM32F1xx_HAL_Driver/Inc/stm32f1xx_ll_bus.h **** */
 376:Drivers/STM32F1xx_HAL_Driver/Inc/stm32f1xx_ll_bus.h **** __STATIC_INLINE void LL_AHB1_GRP1_ReleaseReset(uint32_t Periphs)
 377:Drivers/STM32F1xx_HAL_Driver/Inc/stm32f1xx_ll_bus.h **** {
 378:Drivers/STM32F1xx_HAL_Driver/Inc/stm32f1xx_ll_bus.h ****   CLEAR_BIT(RCC->AHBRSTR, Periphs);
 379:Drivers/STM32F1xx_HAL_Driver/Inc/stm32f1xx_ll_bus.h **** }
 380:Drivers/STM32F1xx_HAL_Driver/Inc/stm32f1xx_ll_bus.h **** #endif /* RCC_AHBRSTR_SUPPORT */
 381:Drivers/STM32F1xx_HAL_Driver/Inc/stm32f1xx_ll_bus.h **** 
 382:Drivers/STM32F1xx_HAL_Driver/Inc/stm32f1xx_ll_bus.h **** /**
 383:Drivers/STM32F1xx_HAL_Driver/Inc/stm32f1xx_ll_bus.h ****   * @}
 384:Drivers/STM32F1xx_HAL_Driver/Inc/stm32f1xx_ll_bus.h ****   */
 385:Drivers/STM32F1xx_HAL_Driver/Inc/stm32f1xx_ll_bus.h **** 
 386:Drivers/STM32F1xx_HAL_Driver/Inc/stm32f1xx_ll_bus.h **** /** @defgroup BUS_LL_EF_APB1 APB1
 387:Drivers/STM32F1xx_HAL_Driver/Inc/stm32f1xx_ll_bus.h ****   * @{
 388:Drivers/STM32F1xx_HAL_Driver/Inc/stm32f1xx_ll_bus.h ****   */
 389:Drivers/STM32F1xx_HAL_Driver/Inc/stm32f1xx_ll_bus.h **** 
 390:Drivers/STM32F1xx_HAL_Driver/Inc/stm32f1xx_ll_bus.h **** /**
 391:Drivers/STM32F1xx_HAL_Driver/Inc/stm32f1xx_ll_bus.h ****   * @brief  Enable APB1 peripherals clock.
 392:Drivers/STM32F1xx_HAL_Driver/Inc/stm32f1xx_ll_bus.h ****   * @rmtoll APB1ENR      BKPEN         LL_APB1_GRP1_EnableClock\n
 393:Drivers/STM32F1xx_HAL_Driver/Inc/stm32f1xx_ll_bus.h ****   *         APB1ENR      CAN1EN        LL_APB1_GRP1_EnableClock\n
 394:Drivers/STM32F1xx_HAL_Driver/Inc/stm32f1xx_ll_bus.h ****   *         APB1ENR      CAN2EN        LL_APB1_GRP1_EnableClock\n
ARM GAS  /tmp/ccSSjYDs.s 			page 11


 395:Drivers/STM32F1xx_HAL_Driver/Inc/stm32f1xx_ll_bus.h ****   *         APB1ENR      CECEN         LL_APB1_GRP1_EnableClock\n
 396:Drivers/STM32F1xx_HAL_Driver/Inc/stm32f1xx_ll_bus.h ****   *         APB1ENR      DACEN         LL_APB1_GRP1_EnableClock\n
 397:Drivers/STM32F1xx_HAL_Driver/Inc/stm32f1xx_ll_bus.h ****   *         APB1ENR      I2C1EN        LL_APB1_GRP1_EnableClock\n
 398:Drivers/STM32F1xx_HAL_Driver/Inc/stm32f1xx_ll_bus.h ****   *         APB1ENR      I2C2EN        LL_APB1_GRP1_EnableClock\n
 399:Drivers/STM32F1xx_HAL_Driver/Inc/stm32f1xx_ll_bus.h ****   *         APB1ENR      PWREN         LL_APB1_GRP1_EnableClock\n
 400:Drivers/STM32F1xx_HAL_Driver/Inc/stm32f1xx_ll_bus.h ****   *         APB1ENR      SPI2EN        LL_APB1_GRP1_EnableClock\n
 401:Drivers/STM32F1xx_HAL_Driver/Inc/stm32f1xx_ll_bus.h ****   *         APB1ENR      SPI3EN        LL_APB1_GRP1_EnableClock\n
 402:Drivers/STM32F1xx_HAL_Driver/Inc/stm32f1xx_ll_bus.h ****   *         APB1ENR      TIM12EN       LL_APB1_GRP1_EnableClock\n
 403:Drivers/STM32F1xx_HAL_Driver/Inc/stm32f1xx_ll_bus.h ****   *         APB1ENR      TIM13EN       LL_APB1_GRP1_EnableClock\n
 404:Drivers/STM32F1xx_HAL_Driver/Inc/stm32f1xx_ll_bus.h ****   *         APB1ENR      TIM14EN       LL_APB1_GRP1_EnableClock\n
 405:Drivers/STM32F1xx_HAL_Driver/Inc/stm32f1xx_ll_bus.h ****   *         APB1ENR      TIM2EN        LL_APB1_GRP1_EnableClock\n
 406:Drivers/STM32F1xx_HAL_Driver/Inc/stm32f1xx_ll_bus.h ****   *         APB1ENR      TIM3EN        LL_APB1_GRP1_EnableClock\n
 407:Drivers/STM32F1xx_HAL_Driver/Inc/stm32f1xx_ll_bus.h ****   *         APB1ENR      TIM4EN        LL_APB1_GRP1_EnableClock\n
 408:Drivers/STM32F1xx_HAL_Driver/Inc/stm32f1xx_ll_bus.h ****   *         APB1ENR      TIM5EN        LL_APB1_GRP1_EnableClock\n
 409:Drivers/STM32F1xx_HAL_Driver/Inc/stm32f1xx_ll_bus.h ****   *         APB1ENR      TIM6EN        LL_APB1_GRP1_EnableClock\n
 410:Drivers/STM32F1xx_HAL_Driver/Inc/stm32f1xx_ll_bus.h ****   *         APB1ENR      TIM7EN        LL_APB1_GRP1_EnableClock\n
 411:Drivers/STM32F1xx_HAL_Driver/Inc/stm32f1xx_ll_bus.h ****   *         APB1ENR      UART4EN       LL_APB1_GRP1_EnableClock\n
 412:Drivers/STM32F1xx_HAL_Driver/Inc/stm32f1xx_ll_bus.h ****   *         APB1ENR      UART5EN       LL_APB1_GRP1_EnableClock\n
 413:Drivers/STM32F1xx_HAL_Driver/Inc/stm32f1xx_ll_bus.h ****   *         APB1ENR      USART2EN      LL_APB1_GRP1_EnableClock\n
 414:Drivers/STM32F1xx_HAL_Driver/Inc/stm32f1xx_ll_bus.h ****   *         APB1ENR      USART3EN      LL_APB1_GRP1_EnableClock\n
 415:Drivers/STM32F1xx_HAL_Driver/Inc/stm32f1xx_ll_bus.h ****   *         APB1ENR      USBEN         LL_APB1_GRP1_EnableClock\n
 416:Drivers/STM32F1xx_HAL_Driver/Inc/stm32f1xx_ll_bus.h ****   *         APB1ENR      WWDGEN        LL_APB1_GRP1_EnableClock
 417:Drivers/STM32F1xx_HAL_Driver/Inc/stm32f1xx_ll_bus.h ****   * @param  Periphs This parameter can be a combination of the following values:
 418:Drivers/STM32F1xx_HAL_Driver/Inc/stm32f1xx_ll_bus.h ****   *         @arg @ref LL_APB1_GRP1_PERIPH_BKP
 419:Drivers/STM32F1xx_HAL_Driver/Inc/stm32f1xx_ll_bus.h ****   *         @arg @ref LL_APB1_GRP1_PERIPH_CAN1 (*)
 420:Drivers/STM32F1xx_HAL_Driver/Inc/stm32f1xx_ll_bus.h ****   *         @arg @ref LL_APB1_GRP1_PERIPH_CAN2 (*)
 421:Drivers/STM32F1xx_HAL_Driver/Inc/stm32f1xx_ll_bus.h ****   *         @arg @ref LL_APB1_GRP1_PERIPH_CEC (*)
 422:Drivers/STM32F1xx_HAL_Driver/Inc/stm32f1xx_ll_bus.h ****   *         @arg @ref LL_APB1_GRP1_PERIPH_DAC1 (*)
 423:Drivers/STM32F1xx_HAL_Driver/Inc/stm32f1xx_ll_bus.h ****   *         @arg @ref LL_APB1_GRP1_PERIPH_I2C1
 424:Drivers/STM32F1xx_HAL_Driver/Inc/stm32f1xx_ll_bus.h ****   *         @arg @ref LL_APB1_GRP1_PERIPH_I2C2 (*)
 425:Drivers/STM32F1xx_HAL_Driver/Inc/stm32f1xx_ll_bus.h ****   *         @arg @ref LL_APB1_GRP1_PERIPH_PWR
 426:Drivers/STM32F1xx_HAL_Driver/Inc/stm32f1xx_ll_bus.h ****   *         @arg @ref LL_APB1_GRP1_PERIPH_SPI2 (*)
 427:Drivers/STM32F1xx_HAL_Driver/Inc/stm32f1xx_ll_bus.h ****   *         @arg @ref LL_APB1_GRP1_PERIPH_SPI3 (*)
 428:Drivers/STM32F1xx_HAL_Driver/Inc/stm32f1xx_ll_bus.h ****   *         @arg @ref LL_APB1_GRP1_PERIPH_TIM12 (*)
 429:Drivers/STM32F1xx_HAL_Driver/Inc/stm32f1xx_ll_bus.h ****   *         @arg @ref LL_APB1_GRP1_PERIPH_TIM13 (*)
 430:Drivers/STM32F1xx_HAL_Driver/Inc/stm32f1xx_ll_bus.h ****   *         @arg @ref LL_APB1_GRP1_PERIPH_TIM14 (*)
 431:Drivers/STM32F1xx_HAL_Driver/Inc/stm32f1xx_ll_bus.h ****   *         @arg @ref LL_APB1_GRP1_PERIPH_TIM2
 432:Drivers/STM32F1xx_HAL_Driver/Inc/stm32f1xx_ll_bus.h ****   *         @arg @ref LL_APB1_GRP1_PERIPH_TIM3
 433:Drivers/STM32F1xx_HAL_Driver/Inc/stm32f1xx_ll_bus.h ****   *         @arg @ref LL_APB1_GRP1_PERIPH_TIM4 (*)
 434:Drivers/STM32F1xx_HAL_Driver/Inc/stm32f1xx_ll_bus.h ****   *         @arg @ref LL_APB1_GRP1_PERIPH_TIM5 (*)
 435:Drivers/STM32F1xx_HAL_Driver/Inc/stm32f1xx_ll_bus.h ****   *         @arg @ref LL_APB1_GRP1_PERIPH_TIM6 (*)
 436:Drivers/STM32F1xx_HAL_Driver/Inc/stm32f1xx_ll_bus.h ****   *         @arg @ref LL_APB1_GRP1_PERIPH_TIM7 (*)
 437:Drivers/STM32F1xx_HAL_Driver/Inc/stm32f1xx_ll_bus.h ****   *         @arg @ref LL_APB1_GRP1_PERIPH_UART4 (*)
 438:Drivers/STM32F1xx_HAL_Driver/Inc/stm32f1xx_ll_bus.h ****   *         @arg @ref LL_APB1_GRP1_PERIPH_UART5 (*)
 439:Drivers/STM32F1xx_HAL_Driver/Inc/stm32f1xx_ll_bus.h ****   *         @arg @ref LL_APB1_GRP1_PERIPH_USART2
 440:Drivers/STM32F1xx_HAL_Driver/Inc/stm32f1xx_ll_bus.h ****   *         @arg @ref LL_APB1_GRP1_PERIPH_USART3 (*)
 441:Drivers/STM32F1xx_HAL_Driver/Inc/stm32f1xx_ll_bus.h ****   *         @arg @ref LL_APB1_GRP1_PERIPH_USB (*)
 442:Drivers/STM32F1xx_HAL_Driver/Inc/stm32f1xx_ll_bus.h ****   *         @arg @ref LL_APB1_GRP1_PERIPH_WWDG
 443:Drivers/STM32F1xx_HAL_Driver/Inc/stm32f1xx_ll_bus.h ****   *
 444:Drivers/STM32F1xx_HAL_Driver/Inc/stm32f1xx_ll_bus.h ****   *         (*) value not defined in all devices.
 445:Drivers/STM32F1xx_HAL_Driver/Inc/stm32f1xx_ll_bus.h ****   * @retval None
 446:Drivers/STM32F1xx_HAL_Driver/Inc/stm32f1xx_ll_bus.h **** */
 447:Drivers/STM32F1xx_HAL_Driver/Inc/stm32f1xx_ll_bus.h **** __STATIC_INLINE void LL_APB1_GRP1_EnableClock(uint32_t Periphs)
 448:Drivers/STM32F1xx_HAL_Driver/Inc/stm32f1xx_ll_bus.h **** {
 449:Drivers/STM32F1xx_HAL_Driver/Inc/stm32f1xx_ll_bus.h ****   __IO uint32_t tmpreg;
 450:Drivers/STM32F1xx_HAL_Driver/Inc/stm32f1xx_ll_bus.h ****   SET_BIT(RCC->APB1ENR, Periphs);
 451:Drivers/STM32F1xx_HAL_Driver/Inc/stm32f1xx_ll_bus.h ****   /* Delay after an RCC peripheral clock enabling */
ARM GAS  /tmp/ccSSjYDs.s 			page 12


 452:Drivers/STM32F1xx_HAL_Driver/Inc/stm32f1xx_ll_bus.h ****   tmpreg = READ_BIT(RCC->APB1ENR, Periphs);
 453:Drivers/STM32F1xx_HAL_Driver/Inc/stm32f1xx_ll_bus.h ****   (void)tmpreg;
 454:Drivers/STM32F1xx_HAL_Driver/Inc/stm32f1xx_ll_bus.h **** }
 455:Drivers/STM32F1xx_HAL_Driver/Inc/stm32f1xx_ll_bus.h **** 
 456:Drivers/STM32F1xx_HAL_Driver/Inc/stm32f1xx_ll_bus.h **** /**
 457:Drivers/STM32F1xx_HAL_Driver/Inc/stm32f1xx_ll_bus.h ****   * @brief  Check if APB1 peripheral clock is enabled or not
 458:Drivers/STM32F1xx_HAL_Driver/Inc/stm32f1xx_ll_bus.h ****   * @rmtoll APB1ENR      BKPEN         LL_APB1_GRP1_IsEnabledClock\n
 459:Drivers/STM32F1xx_HAL_Driver/Inc/stm32f1xx_ll_bus.h ****   *         APB1ENR      CAN1EN        LL_APB1_GRP1_IsEnabledClock\n
 460:Drivers/STM32F1xx_HAL_Driver/Inc/stm32f1xx_ll_bus.h ****   *         APB1ENR      CAN2EN        LL_APB1_GRP1_IsEnabledClock\n
 461:Drivers/STM32F1xx_HAL_Driver/Inc/stm32f1xx_ll_bus.h ****   *         APB1ENR      CECEN         LL_APB1_GRP1_IsEnabledClock\n
 462:Drivers/STM32F1xx_HAL_Driver/Inc/stm32f1xx_ll_bus.h ****   *         APB1ENR      DACEN         LL_APB1_GRP1_IsEnabledClock\n
 463:Drivers/STM32F1xx_HAL_Driver/Inc/stm32f1xx_ll_bus.h ****   *         APB1ENR      I2C1EN        LL_APB1_GRP1_IsEnabledClock\n
 464:Drivers/STM32F1xx_HAL_Driver/Inc/stm32f1xx_ll_bus.h ****   *         APB1ENR      I2C2EN        LL_APB1_GRP1_IsEnabledClock\n
 465:Drivers/STM32F1xx_HAL_Driver/Inc/stm32f1xx_ll_bus.h ****   *         APB1ENR      PWREN         LL_APB1_GRP1_IsEnabledClock\n
 466:Drivers/STM32F1xx_HAL_Driver/Inc/stm32f1xx_ll_bus.h ****   *         APB1ENR      SPI2EN        LL_APB1_GRP1_IsEnabledClock\n
 467:Drivers/STM32F1xx_HAL_Driver/Inc/stm32f1xx_ll_bus.h ****   *         APB1ENR      SPI3EN        LL_APB1_GRP1_IsEnabledClock\n
 468:Drivers/STM32F1xx_HAL_Driver/Inc/stm32f1xx_ll_bus.h ****   *         APB1ENR      TIM12EN       LL_APB1_GRP1_IsEnabledClock\n
 469:Drivers/STM32F1xx_HAL_Driver/Inc/stm32f1xx_ll_bus.h ****   *         APB1ENR      TIM13EN       LL_APB1_GRP1_IsEnabledClock\n
 470:Drivers/STM32F1xx_HAL_Driver/Inc/stm32f1xx_ll_bus.h ****   *         APB1ENR      TIM14EN       LL_APB1_GRP1_IsEnabledClock\n
 471:Drivers/STM32F1xx_HAL_Driver/Inc/stm32f1xx_ll_bus.h ****   *         APB1ENR      TIM2EN        LL_APB1_GRP1_IsEnabledClock\n
 472:Drivers/STM32F1xx_HAL_Driver/Inc/stm32f1xx_ll_bus.h ****   *         APB1ENR      TIM3EN        LL_APB1_GRP1_IsEnabledClock\n
 473:Drivers/STM32F1xx_HAL_Driver/Inc/stm32f1xx_ll_bus.h ****   *         APB1ENR      TIM4EN        LL_APB1_GRP1_IsEnabledClock\n
 474:Drivers/STM32F1xx_HAL_Driver/Inc/stm32f1xx_ll_bus.h ****   *         APB1ENR      TIM5EN        LL_APB1_GRP1_IsEnabledClock\n
 475:Drivers/STM32F1xx_HAL_Driver/Inc/stm32f1xx_ll_bus.h ****   *         APB1ENR      TIM6EN        LL_APB1_GRP1_IsEnabledClock\n
 476:Drivers/STM32F1xx_HAL_Driver/Inc/stm32f1xx_ll_bus.h ****   *         APB1ENR      TIM7EN        LL_APB1_GRP1_IsEnabledClock\n
 477:Drivers/STM32F1xx_HAL_Driver/Inc/stm32f1xx_ll_bus.h ****   *         APB1ENR      UART4EN       LL_APB1_GRP1_IsEnabledClock\n
 478:Drivers/STM32F1xx_HAL_Driver/Inc/stm32f1xx_ll_bus.h ****   *         APB1ENR      UART5EN       LL_APB1_GRP1_IsEnabledClock\n
 479:Drivers/STM32F1xx_HAL_Driver/Inc/stm32f1xx_ll_bus.h ****   *         APB1ENR      USART2EN      LL_APB1_GRP1_IsEnabledClock\n
 480:Drivers/STM32F1xx_HAL_Driver/Inc/stm32f1xx_ll_bus.h ****   *         APB1ENR      USART3EN      LL_APB1_GRP1_IsEnabledClock\n
 481:Drivers/STM32F1xx_HAL_Driver/Inc/stm32f1xx_ll_bus.h ****   *         APB1ENR      USBEN         LL_APB1_GRP1_IsEnabledClock\n
 482:Drivers/STM32F1xx_HAL_Driver/Inc/stm32f1xx_ll_bus.h ****   *         APB1ENR      WWDGEN        LL_APB1_GRP1_IsEnabledClock
 483:Drivers/STM32F1xx_HAL_Driver/Inc/stm32f1xx_ll_bus.h ****   * @param  Periphs This parameter can be a combination of the following values:
 484:Drivers/STM32F1xx_HAL_Driver/Inc/stm32f1xx_ll_bus.h ****   *         @arg @ref LL_APB1_GRP1_PERIPH_BKP
 485:Drivers/STM32F1xx_HAL_Driver/Inc/stm32f1xx_ll_bus.h ****   *         @arg @ref LL_APB1_GRP1_PERIPH_CAN1 (*)
 486:Drivers/STM32F1xx_HAL_Driver/Inc/stm32f1xx_ll_bus.h ****   *         @arg @ref LL_APB1_GRP1_PERIPH_CAN2 (*)
 487:Drivers/STM32F1xx_HAL_Driver/Inc/stm32f1xx_ll_bus.h ****   *         @arg @ref LL_APB1_GRP1_PERIPH_CEC (*)
 488:Drivers/STM32F1xx_HAL_Driver/Inc/stm32f1xx_ll_bus.h ****   *         @arg @ref LL_APB1_GRP1_PERIPH_DAC1 (*)
 489:Drivers/STM32F1xx_HAL_Driver/Inc/stm32f1xx_ll_bus.h ****   *         @arg @ref LL_APB1_GRP1_PERIPH_I2C1
 490:Drivers/STM32F1xx_HAL_Driver/Inc/stm32f1xx_ll_bus.h ****   *         @arg @ref LL_APB1_GRP1_PERIPH_I2C2 (*)
 491:Drivers/STM32F1xx_HAL_Driver/Inc/stm32f1xx_ll_bus.h ****   *         @arg @ref LL_APB1_GRP1_PERIPH_PWR
 492:Drivers/STM32F1xx_HAL_Driver/Inc/stm32f1xx_ll_bus.h ****   *         @arg @ref LL_APB1_GRP1_PERIPH_SPI2 (*)
 493:Drivers/STM32F1xx_HAL_Driver/Inc/stm32f1xx_ll_bus.h ****   *         @arg @ref LL_APB1_GRP1_PERIPH_SPI3 (*)
 494:Drivers/STM32F1xx_HAL_Driver/Inc/stm32f1xx_ll_bus.h ****   *         @arg @ref LL_APB1_GRP1_PERIPH_TIM12 (*)
 495:Drivers/STM32F1xx_HAL_Driver/Inc/stm32f1xx_ll_bus.h ****   *         @arg @ref LL_APB1_GRP1_PERIPH_TIM13 (*)
 496:Drivers/STM32F1xx_HAL_Driver/Inc/stm32f1xx_ll_bus.h ****   *         @arg @ref LL_APB1_GRP1_PERIPH_TIM14 (*)
 497:Drivers/STM32F1xx_HAL_Driver/Inc/stm32f1xx_ll_bus.h ****   *         @arg @ref LL_APB1_GRP1_PERIPH_TIM2
 498:Drivers/STM32F1xx_HAL_Driver/Inc/stm32f1xx_ll_bus.h ****   *         @arg @ref LL_APB1_GRP1_PERIPH_TIM3
 499:Drivers/STM32F1xx_HAL_Driver/Inc/stm32f1xx_ll_bus.h ****   *         @arg @ref LL_APB1_GRP1_PERIPH_TIM4 (*)
 500:Drivers/STM32F1xx_HAL_Driver/Inc/stm32f1xx_ll_bus.h ****   *         @arg @ref LL_APB1_GRP1_PERIPH_TIM5 (*)
 501:Drivers/STM32F1xx_HAL_Driver/Inc/stm32f1xx_ll_bus.h ****   *         @arg @ref LL_APB1_GRP1_PERIPH_TIM6 (*)
 502:Drivers/STM32F1xx_HAL_Driver/Inc/stm32f1xx_ll_bus.h ****   *         @arg @ref LL_APB1_GRP1_PERIPH_TIM7 (*)
 503:Drivers/STM32F1xx_HAL_Driver/Inc/stm32f1xx_ll_bus.h ****   *         @arg @ref LL_APB1_GRP1_PERIPH_UART4 (*)
 504:Drivers/STM32F1xx_HAL_Driver/Inc/stm32f1xx_ll_bus.h ****   *         @arg @ref LL_APB1_GRP1_PERIPH_UART5 (*)
 505:Drivers/STM32F1xx_HAL_Driver/Inc/stm32f1xx_ll_bus.h ****   *         @arg @ref LL_APB1_GRP1_PERIPH_USART2
 506:Drivers/STM32F1xx_HAL_Driver/Inc/stm32f1xx_ll_bus.h ****   *         @arg @ref LL_APB1_GRP1_PERIPH_USART3 (*)
 507:Drivers/STM32F1xx_HAL_Driver/Inc/stm32f1xx_ll_bus.h ****   *         @arg @ref LL_APB1_GRP1_PERIPH_USB (*)
 508:Drivers/STM32F1xx_HAL_Driver/Inc/stm32f1xx_ll_bus.h ****   *         @arg @ref LL_APB1_GRP1_PERIPH_WWDG
ARM GAS  /tmp/ccSSjYDs.s 			page 13


 509:Drivers/STM32F1xx_HAL_Driver/Inc/stm32f1xx_ll_bus.h ****   *
 510:Drivers/STM32F1xx_HAL_Driver/Inc/stm32f1xx_ll_bus.h ****   *         (*) value not defined in all devices.
 511:Drivers/STM32F1xx_HAL_Driver/Inc/stm32f1xx_ll_bus.h ****   * @retval State of Periphs (1 or 0).
 512:Drivers/STM32F1xx_HAL_Driver/Inc/stm32f1xx_ll_bus.h **** */
 513:Drivers/STM32F1xx_HAL_Driver/Inc/stm32f1xx_ll_bus.h **** __STATIC_INLINE uint32_t LL_APB1_GRP1_IsEnabledClock(uint32_t Periphs)
 514:Drivers/STM32F1xx_HAL_Driver/Inc/stm32f1xx_ll_bus.h **** {
 515:Drivers/STM32F1xx_HAL_Driver/Inc/stm32f1xx_ll_bus.h ****   return (READ_BIT(RCC->APB1ENR, Periphs) == Periphs);
 516:Drivers/STM32F1xx_HAL_Driver/Inc/stm32f1xx_ll_bus.h **** }
 517:Drivers/STM32F1xx_HAL_Driver/Inc/stm32f1xx_ll_bus.h **** 
 518:Drivers/STM32F1xx_HAL_Driver/Inc/stm32f1xx_ll_bus.h **** /**
 519:Drivers/STM32F1xx_HAL_Driver/Inc/stm32f1xx_ll_bus.h ****   * @brief  Disable APB1 peripherals clock.
 520:Drivers/STM32F1xx_HAL_Driver/Inc/stm32f1xx_ll_bus.h ****   * @rmtoll APB1ENR      BKPEN         LL_APB1_GRP1_DisableClock\n
 521:Drivers/STM32F1xx_HAL_Driver/Inc/stm32f1xx_ll_bus.h ****   *         APB1ENR      CAN1EN        LL_APB1_GRP1_DisableClock\n
 522:Drivers/STM32F1xx_HAL_Driver/Inc/stm32f1xx_ll_bus.h ****   *         APB1ENR      CAN2EN        LL_APB1_GRP1_DisableClock\n
 523:Drivers/STM32F1xx_HAL_Driver/Inc/stm32f1xx_ll_bus.h ****   *         APB1ENR      CECEN         LL_APB1_GRP1_DisableClock\n
 524:Drivers/STM32F1xx_HAL_Driver/Inc/stm32f1xx_ll_bus.h ****   *         APB1ENR      DACEN         LL_APB1_GRP1_DisableClock\n
 525:Drivers/STM32F1xx_HAL_Driver/Inc/stm32f1xx_ll_bus.h ****   *         APB1ENR      I2C1EN        LL_APB1_GRP1_DisableClock\n
 526:Drivers/STM32F1xx_HAL_Driver/Inc/stm32f1xx_ll_bus.h ****   *         APB1ENR      I2C2EN        LL_APB1_GRP1_DisableClock\n
 527:Drivers/STM32F1xx_HAL_Driver/Inc/stm32f1xx_ll_bus.h ****   *         APB1ENR      PWREN         LL_APB1_GRP1_DisableClock\n
 528:Drivers/STM32F1xx_HAL_Driver/Inc/stm32f1xx_ll_bus.h ****   *         APB1ENR      SPI2EN        LL_APB1_GRP1_DisableClock\n
 529:Drivers/STM32F1xx_HAL_Driver/Inc/stm32f1xx_ll_bus.h ****   *         APB1ENR      SPI3EN        LL_APB1_GRP1_DisableClock\n
 530:Drivers/STM32F1xx_HAL_Driver/Inc/stm32f1xx_ll_bus.h ****   *         APB1ENR      TIM12EN       LL_APB1_GRP1_DisableClock\n
 531:Drivers/STM32F1xx_HAL_Driver/Inc/stm32f1xx_ll_bus.h ****   *         APB1ENR      TIM13EN       LL_APB1_GRP1_DisableClock\n
 532:Drivers/STM32F1xx_HAL_Driver/Inc/stm32f1xx_ll_bus.h ****   *         APB1ENR      TIM14EN       LL_APB1_GRP1_DisableClock\n
 533:Drivers/STM32F1xx_HAL_Driver/Inc/stm32f1xx_ll_bus.h ****   *         APB1ENR      TIM2EN        LL_APB1_GRP1_DisableClock\n
 534:Drivers/STM32F1xx_HAL_Driver/Inc/stm32f1xx_ll_bus.h ****   *         APB1ENR      TIM3EN        LL_APB1_GRP1_DisableClock\n
 535:Drivers/STM32F1xx_HAL_Driver/Inc/stm32f1xx_ll_bus.h ****   *         APB1ENR      TIM4EN        LL_APB1_GRP1_DisableClock\n
 536:Drivers/STM32F1xx_HAL_Driver/Inc/stm32f1xx_ll_bus.h ****   *         APB1ENR      TIM5EN        LL_APB1_GRP1_DisableClock\n
 537:Drivers/STM32F1xx_HAL_Driver/Inc/stm32f1xx_ll_bus.h ****   *         APB1ENR      TIM6EN        LL_APB1_GRP1_DisableClock\n
 538:Drivers/STM32F1xx_HAL_Driver/Inc/stm32f1xx_ll_bus.h ****   *         APB1ENR      TIM7EN        LL_APB1_GRP1_DisableClock\n
 539:Drivers/STM32F1xx_HAL_Driver/Inc/stm32f1xx_ll_bus.h ****   *         APB1ENR      UART4EN       LL_APB1_GRP1_DisableClock\n
 540:Drivers/STM32F1xx_HAL_Driver/Inc/stm32f1xx_ll_bus.h ****   *         APB1ENR      UART5EN       LL_APB1_GRP1_DisableClock\n
 541:Drivers/STM32F1xx_HAL_Driver/Inc/stm32f1xx_ll_bus.h ****   *         APB1ENR      USART2EN      LL_APB1_GRP1_DisableClock\n
 542:Drivers/STM32F1xx_HAL_Driver/Inc/stm32f1xx_ll_bus.h ****   *         APB1ENR      USART3EN      LL_APB1_GRP1_DisableClock\n
 543:Drivers/STM32F1xx_HAL_Driver/Inc/stm32f1xx_ll_bus.h ****   *         APB1ENR      USBEN         LL_APB1_GRP1_DisableClock\n
 544:Drivers/STM32F1xx_HAL_Driver/Inc/stm32f1xx_ll_bus.h ****   *         APB1ENR      WWDGEN        LL_APB1_GRP1_DisableClock
 545:Drivers/STM32F1xx_HAL_Driver/Inc/stm32f1xx_ll_bus.h ****   * @param  Periphs This parameter can be a combination of the following values:
 546:Drivers/STM32F1xx_HAL_Driver/Inc/stm32f1xx_ll_bus.h ****   *         @arg @ref LL_APB1_GRP1_PERIPH_BKP
 547:Drivers/STM32F1xx_HAL_Driver/Inc/stm32f1xx_ll_bus.h ****   *         @arg @ref LL_APB1_GRP1_PERIPH_CAN1 (*)
 548:Drivers/STM32F1xx_HAL_Driver/Inc/stm32f1xx_ll_bus.h ****   *         @arg @ref LL_APB1_GRP1_PERIPH_CAN2 (*)
 549:Drivers/STM32F1xx_HAL_Driver/Inc/stm32f1xx_ll_bus.h ****   *         @arg @ref LL_APB1_GRP1_PERIPH_CEC (*)
 550:Drivers/STM32F1xx_HAL_Driver/Inc/stm32f1xx_ll_bus.h ****   *         @arg @ref LL_APB1_GRP1_PERIPH_DAC1 (*)
 551:Drivers/STM32F1xx_HAL_Driver/Inc/stm32f1xx_ll_bus.h ****   *         @arg @ref LL_APB1_GRP1_PERIPH_I2C1
 552:Drivers/STM32F1xx_HAL_Driver/Inc/stm32f1xx_ll_bus.h ****   *         @arg @ref LL_APB1_GRP1_PERIPH_I2C2 (*)
 553:Drivers/STM32F1xx_HAL_Driver/Inc/stm32f1xx_ll_bus.h ****   *         @arg @ref LL_APB1_GRP1_PERIPH_PWR
 554:Drivers/STM32F1xx_HAL_Driver/Inc/stm32f1xx_ll_bus.h ****   *         @arg @ref LL_APB1_GRP1_PERIPH_SPI2 (*)
 555:Drivers/STM32F1xx_HAL_Driver/Inc/stm32f1xx_ll_bus.h ****   *         @arg @ref LL_APB1_GRP1_PERIPH_SPI3 (*)
 556:Drivers/STM32F1xx_HAL_Driver/Inc/stm32f1xx_ll_bus.h ****   *         @arg @ref LL_APB1_GRP1_PERIPH_TIM12 (*)
 557:Drivers/STM32F1xx_HAL_Driver/Inc/stm32f1xx_ll_bus.h ****   *         @arg @ref LL_APB1_GRP1_PERIPH_TIM13 (*)
 558:Drivers/STM32F1xx_HAL_Driver/Inc/stm32f1xx_ll_bus.h ****   *         @arg @ref LL_APB1_GRP1_PERIPH_TIM14 (*)
 559:Drivers/STM32F1xx_HAL_Driver/Inc/stm32f1xx_ll_bus.h ****   *         @arg @ref LL_APB1_GRP1_PERIPH_TIM2
 560:Drivers/STM32F1xx_HAL_Driver/Inc/stm32f1xx_ll_bus.h ****   *         @arg @ref LL_APB1_GRP1_PERIPH_TIM3
 561:Drivers/STM32F1xx_HAL_Driver/Inc/stm32f1xx_ll_bus.h ****   *         @arg @ref LL_APB1_GRP1_PERIPH_TIM4 (*)
 562:Drivers/STM32F1xx_HAL_Driver/Inc/stm32f1xx_ll_bus.h ****   *         @arg @ref LL_APB1_GRP1_PERIPH_TIM5 (*)
 563:Drivers/STM32F1xx_HAL_Driver/Inc/stm32f1xx_ll_bus.h ****   *         @arg @ref LL_APB1_GRP1_PERIPH_TIM6 (*)
 564:Drivers/STM32F1xx_HAL_Driver/Inc/stm32f1xx_ll_bus.h ****   *         @arg @ref LL_APB1_GRP1_PERIPH_TIM7 (*)
 565:Drivers/STM32F1xx_HAL_Driver/Inc/stm32f1xx_ll_bus.h ****   *         @arg @ref LL_APB1_GRP1_PERIPH_UART4 (*)
ARM GAS  /tmp/ccSSjYDs.s 			page 14


 566:Drivers/STM32F1xx_HAL_Driver/Inc/stm32f1xx_ll_bus.h ****   *         @arg @ref LL_APB1_GRP1_PERIPH_UART5 (*)
 567:Drivers/STM32F1xx_HAL_Driver/Inc/stm32f1xx_ll_bus.h ****   *         @arg @ref LL_APB1_GRP1_PERIPH_USART2
 568:Drivers/STM32F1xx_HAL_Driver/Inc/stm32f1xx_ll_bus.h ****   *         @arg @ref LL_APB1_GRP1_PERIPH_USART3 (*)
 569:Drivers/STM32F1xx_HAL_Driver/Inc/stm32f1xx_ll_bus.h ****   *         @arg @ref LL_APB1_GRP1_PERIPH_USB (*)
 570:Drivers/STM32F1xx_HAL_Driver/Inc/stm32f1xx_ll_bus.h ****   *         @arg @ref LL_APB1_GRP1_PERIPH_WWDG
 571:Drivers/STM32F1xx_HAL_Driver/Inc/stm32f1xx_ll_bus.h ****   *
 572:Drivers/STM32F1xx_HAL_Driver/Inc/stm32f1xx_ll_bus.h ****   *         (*) value not defined in all devices.
 573:Drivers/STM32F1xx_HAL_Driver/Inc/stm32f1xx_ll_bus.h ****   * @retval None
 574:Drivers/STM32F1xx_HAL_Driver/Inc/stm32f1xx_ll_bus.h **** */
 575:Drivers/STM32F1xx_HAL_Driver/Inc/stm32f1xx_ll_bus.h **** __STATIC_INLINE void LL_APB1_GRP1_DisableClock(uint32_t Periphs)
 576:Drivers/STM32F1xx_HAL_Driver/Inc/stm32f1xx_ll_bus.h **** {
 577:Drivers/STM32F1xx_HAL_Driver/Inc/stm32f1xx_ll_bus.h ****   CLEAR_BIT(RCC->APB1ENR, Periphs);
 578:Drivers/STM32F1xx_HAL_Driver/Inc/stm32f1xx_ll_bus.h **** }
 579:Drivers/STM32F1xx_HAL_Driver/Inc/stm32f1xx_ll_bus.h **** 
 580:Drivers/STM32F1xx_HAL_Driver/Inc/stm32f1xx_ll_bus.h **** /**
 581:Drivers/STM32F1xx_HAL_Driver/Inc/stm32f1xx_ll_bus.h ****   * @brief  Force APB1 peripherals reset.
 582:Drivers/STM32F1xx_HAL_Driver/Inc/stm32f1xx_ll_bus.h ****   * @rmtoll APB1RSTR     BKPRST        LL_APB1_GRP1_ForceReset\n
 583:Drivers/STM32F1xx_HAL_Driver/Inc/stm32f1xx_ll_bus.h ****   *         APB1RSTR     CAN1RST       LL_APB1_GRP1_ForceReset\n
 584:Drivers/STM32F1xx_HAL_Driver/Inc/stm32f1xx_ll_bus.h ****   *         APB1RSTR     CAN2RST       LL_APB1_GRP1_ForceReset\n
 585:Drivers/STM32F1xx_HAL_Driver/Inc/stm32f1xx_ll_bus.h ****   *         APB1RSTR     CECRST        LL_APB1_GRP1_ForceReset\n
 586:Drivers/STM32F1xx_HAL_Driver/Inc/stm32f1xx_ll_bus.h ****   *         APB1RSTR     DACRST        LL_APB1_GRP1_ForceReset\n
 587:Drivers/STM32F1xx_HAL_Driver/Inc/stm32f1xx_ll_bus.h ****   *         APB1RSTR     I2C1RST       LL_APB1_GRP1_ForceReset\n
 588:Drivers/STM32F1xx_HAL_Driver/Inc/stm32f1xx_ll_bus.h ****   *         APB1RSTR     I2C2RST       LL_APB1_GRP1_ForceReset\n
 589:Drivers/STM32F1xx_HAL_Driver/Inc/stm32f1xx_ll_bus.h ****   *         APB1RSTR     PWRRST        LL_APB1_GRP1_ForceReset\n
 590:Drivers/STM32F1xx_HAL_Driver/Inc/stm32f1xx_ll_bus.h ****   *         APB1RSTR     SPI2RST       LL_APB1_GRP1_ForceReset\n
 591:Drivers/STM32F1xx_HAL_Driver/Inc/stm32f1xx_ll_bus.h ****   *         APB1RSTR     SPI3RST       LL_APB1_GRP1_ForceReset\n
 592:Drivers/STM32F1xx_HAL_Driver/Inc/stm32f1xx_ll_bus.h ****   *         APB1RSTR     TIM12RST      LL_APB1_GRP1_ForceReset\n
 593:Drivers/STM32F1xx_HAL_Driver/Inc/stm32f1xx_ll_bus.h ****   *         APB1RSTR     TIM13RST      LL_APB1_GRP1_ForceReset\n
 594:Drivers/STM32F1xx_HAL_Driver/Inc/stm32f1xx_ll_bus.h ****   *         APB1RSTR     TIM14RST      LL_APB1_GRP1_ForceReset\n
 595:Drivers/STM32F1xx_HAL_Driver/Inc/stm32f1xx_ll_bus.h ****   *         APB1RSTR     TIM2RST       LL_APB1_GRP1_ForceReset\n
 596:Drivers/STM32F1xx_HAL_Driver/Inc/stm32f1xx_ll_bus.h ****   *         APB1RSTR     TIM3RST       LL_APB1_GRP1_ForceReset\n
 597:Drivers/STM32F1xx_HAL_Driver/Inc/stm32f1xx_ll_bus.h ****   *         APB1RSTR     TIM4RST       LL_APB1_GRP1_ForceReset\n
 598:Drivers/STM32F1xx_HAL_Driver/Inc/stm32f1xx_ll_bus.h ****   *         APB1RSTR     TIM5RST       LL_APB1_GRP1_ForceReset\n
 599:Drivers/STM32F1xx_HAL_Driver/Inc/stm32f1xx_ll_bus.h ****   *         APB1RSTR     TIM6RST       LL_APB1_GRP1_ForceReset\n
 600:Drivers/STM32F1xx_HAL_Driver/Inc/stm32f1xx_ll_bus.h ****   *         APB1RSTR     TIM7RST       LL_APB1_GRP1_ForceReset\n
 601:Drivers/STM32F1xx_HAL_Driver/Inc/stm32f1xx_ll_bus.h ****   *         APB1RSTR     UART4RST      LL_APB1_GRP1_ForceReset\n
 602:Drivers/STM32F1xx_HAL_Driver/Inc/stm32f1xx_ll_bus.h ****   *         APB1RSTR     UART5RST      LL_APB1_GRP1_ForceReset\n
 603:Drivers/STM32F1xx_HAL_Driver/Inc/stm32f1xx_ll_bus.h ****   *         APB1RSTR     USART2RST     LL_APB1_GRP1_ForceReset\n
 604:Drivers/STM32F1xx_HAL_Driver/Inc/stm32f1xx_ll_bus.h ****   *         APB1RSTR     USART3RST     LL_APB1_GRP1_ForceReset\n
 605:Drivers/STM32F1xx_HAL_Driver/Inc/stm32f1xx_ll_bus.h ****   *         APB1RSTR     USBRST        LL_APB1_GRP1_ForceReset\n
 606:Drivers/STM32F1xx_HAL_Driver/Inc/stm32f1xx_ll_bus.h ****   *         APB1RSTR     WWDGRST       LL_APB1_GRP1_ForceReset
 607:Drivers/STM32F1xx_HAL_Driver/Inc/stm32f1xx_ll_bus.h ****   * @param  Periphs This parameter can be a combination of the following values:
 608:Drivers/STM32F1xx_HAL_Driver/Inc/stm32f1xx_ll_bus.h ****   *         @arg @ref LL_APB1_GRP1_PERIPH_ALL
 609:Drivers/STM32F1xx_HAL_Driver/Inc/stm32f1xx_ll_bus.h ****   *         @arg @ref LL_APB1_GRP1_PERIPH_BKP
 610:Drivers/STM32F1xx_HAL_Driver/Inc/stm32f1xx_ll_bus.h ****   *         @arg @ref LL_APB1_GRP1_PERIPH_CAN1 (*)
 611:Drivers/STM32F1xx_HAL_Driver/Inc/stm32f1xx_ll_bus.h ****   *         @arg @ref LL_APB1_GRP1_PERIPH_CAN2 (*)
 612:Drivers/STM32F1xx_HAL_Driver/Inc/stm32f1xx_ll_bus.h ****   *         @arg @ref LL_APB1_GRP1_PERIPH_CEC (*)
 613:Drivers/STM32F1xx_HAL_Driver/Inc/stm32f1xx_ll_bus.h ****   *         @arg @ref LL_APB1_GRP1_PERIPH_DAC1 (*)
 614:Drivers/STM32F1xx_HAL_Driver/Inc/stm32f1xx_ll_bus.h ****   *         @arg @ref LL_APB1_GRP1_PERIPH_I2C1
 615:Drivers/STM32F1xx_HAL_Driver/Inc/stm32f1xx_ll_bus.h ****   *         @arg @ref LL_APB1_GRP1_PERIPH_I2C2 (*)
 616:Drivers/STM32F1xx_HAL_Driver/Inc/stm32f1xx_ll_bus.h ****   *         @arg @ref LL_APB1_GRP1_PERIPH_PWR
 617:Drivers/STM32F1xx_HAL_Driver/Inc/stm32f1xx_ll_bus.h ****   *         @arg @ref LL_APB1_GRP1_PERIPH_SPI2 (*)
 618:Drivers/STM32F1xx_HAL_Driver/Inc/stm32f1xx_ll_bus.h ****   *         @arg @ref LL_APB1_GRP1_PERIPH_SPI3 (*)
 619:Drivers/STM32F1xx_HAL_Driver/Inc/stm32f1xx_ll_bus.h ****   *         @arg @ref LL_APB1_GRP1_PERIPH_TIM12 (*)
 620:Drivers/STM32F1xx_HAL_Driver/Inc/stm32f1xx_ll_bus.h ****   *         @arg @ref LL_APB1_GRP1_PERIPH_TIM13 (*)
 621:Drivers/STM32F1xx_HAL_Driver/Inc/stm32f1xx_ll_bus.h ****   *         @arg @ref LL_APB1_GRP1_PERIPH_TIM14 (*)
 622:Drivers/STM32F1xx_HAL_Driver/Inc/stm32f1xx_ll_bus.h ****   *         @arg @ref LL_APB1_GRP1_PERIPH_TIM2
ARM GAS  /tmp/ccSSjYDs.s 			page 15


 623:Drivers/STM32F1xx_HAL_Driver/Inc/stm32f1xx_ll_bus.h ****   *         @arg @ref LL_APB1_GRP1_PERIPH_TIM3
 624:Drivers/STM32F1xx_HAL_Driver/Inc/stm32f1xx_ll_bus.h ****   *         @arg @ref LL_APB1_GRP1_PERIPH_TIM4 (*)
 625:Drivers/STM32F1xx_HAL_Driver/Inc/stm32f1xx_ll_bus.h ****   *         @arg @ref LL_APB1_GRP1_PERIPH_TIM5 (*)
 626:Drivers/STM32F1xx_HAL_Driver/Inc/stm32f1xx_ll_bus.h ****   *         @arg @ref LL_APB1_GRP1_PERIPH_TIM6 (*)
 627:Drivers/STM32F1xx_HAL_Driver/Inc/stm32f1xx_ll_bus.h ****   *         @arg @ref LL_APB1_GRP1_PERIPH_TIM7 (*)
 628:Drivers/STM32F1xx_HAL_Driver/Inc/stm32f1xx_ll_bus.h ****   *         @arg @ref LL_APB1_GRP1_PERIPH_UART4 (*)
 629:Drivers/STM32F1xx_HAL_Driver/Inc/stm32f1xx_ll_bus.h ****   *         @arg @ref LL_APB1_GRP1_PERIPH_UART5 (*)
 630:Drivers/STM32F1xx_HAL_Driver/Inc/stm32f1xx_ll_bus.h ****   *         @arg @ref LL_APB1_GRP1_PERIPH_USART2
 631:Drivers/STM32F1xx_HAL_Driver/Inc/stm32f1xx_ll_bus.h ****   *         @arg @ref LL_APB1_GRP1_PERIPH_USART3 (*)
 632:Drivers/STM32F1xx_HAL_Driver/Inc/stm32f1xx_ll_bus.h ****   *         @arg @ref LL_APB1_GRP1_PERIPH_USB (*)
 633:Drivers/STM32F1xx_HAL_Driver/Inc/stm32f1xx_ll_bus.h ****   *         @arg @ref LL_APB1_GRP1_PERIPH_WWDG
 634:Drivers/STM32F1xx_HAL_Driver/Inc/stm32f1xx_ll_bus.h ****   *
 635:Drivers/STM32F1xx_HAL_Driver/Inc/stm32f1xx_ll_bus.h ****   *         (*) value not defined in all devices.
 636:Drivers/STM32F1xx_HAL_Driver/Inc/stm32f1xx_ll_bus.h ****   * @retval None
 637:Drivers/STM32F1xx_HAL_Driver/Inc/stm32f1xx_ll_bus.h **** */
 638:Drivers/STM32F1xx_HAL_Driver/Inc/stm32f1xx_ll_bus.h **** __STATIC_INLINE void LL_APB1_GRP1_ForceReset(uint32_t Periphs)
  57              		.loc 2 638 22 view .LVU11
  58              	.LBB21:
 639:Drivers/STM32F1xx_HAL_Driver/Inc/stm32f1xx_ll_bus.h **** {
 640:Drivers/STM32F1xx_HAL_Driver/Inc/stm32f1xx_ll_bus.h ****   SET_BIT(RCC->APB1RSTR, Periphs);
  59              		.loc 2 640 3 view .LVU12
  60 0010 03F5DE33 		add	r3, r3, #113664
  61 0014 1A69     		ldr	r2, [r3, #16]
  62 0016 42F40012 		orr	r2, r2, #2097152
  63 001a 1A61     		str	r2, [r3, #16]
  64              	.LVL3:
  65              		.loc 2 640 3 is_stmt 0 view .LVU13
  66              	.LBE21:
  67              	.LBE20:
 101:Drivers/STM32F1xx_HAL_Driver/Src/stm32f1xx_ll_i2c.c ****   }
  68              		.loc 1 101 5 is_stmt 1 view .LVU14
  69              	.LBB22:
  70              	.LBI22:
 641:Drivers/STM32F1xx_HAL_Driver/Inc/stm32f1xx_ll_bus.h **** }
 642:Drivers/STM32F1xx_HAL_Driver/Inc/stm32f1xx_ll_bus.h **** 
 643:Drivers/STM32F1xx_HAL_Driver/Inc/stm32f1xx_ll_bus.h **** /**
 644:Drivers/STM32F1xx_HAL_Driver/Inc/stm32f1xx_ll_bus.h ****   * @brief  Release APB1 peripherals reset.
 645:Drivers/STM32F1xx_HAL_Driver/Inc/stm32f1xx_ll_bus.h ****   * @rmtoll APB1RSTR     BKPRST        LL_APB1_GRP1_ReleaseReset\n
 646:Drivers/STM32F1xx_HAL_Driver/Inc/stm32f1xx_ll_bus.h ****   *         APB1RSTR     CAN1RST       LL_APB1_GRP1_ReleaseReset\n
 647:Drivers/STM32F1xx_HAL_Driver/Inc/stm32f1xx_ll_bus.h ****   *         APB1RSTR     CAN2RST       LL_APB1_GRP1_ReleaseReset\n
 648:Drivers/STM32F1xx_HAL_Driver/Inc/stm32f1xx_ll_bus.h ****   *         APB1RSTR     CECRST        LL_APB1_GRP1_ReleaseReset\n
 649:Drivers/STM32F1xx_HAL_Driver/Inc/stm32f1xx_ll_bus.h ****   *         APB1RSTR     DACRST        LL_APB1_GRP1_ReleaseReset\n
 650:Drivers/STM32F1xx_HAL_Driver/Inc/stm32f1xx_ll_bus.h ****   *         APB1RSTR     I2C1RST       LL_APB1_GRP1_ReleaseReset\n
 651:Drivers/STM32F1xx_HAL_Driver/Inc/stm32f1xx_ll_bus.h ****   *         APB1RSTR     I2C2RST       LL_APB1_GRP1_ReleaseReset\n
 652:Drivers/STM32F1xx_HAL_Driver/Inc/stm32f1xx_ll_bus.h ****   *         APB1RSTR     PWRRST        LL_APB1_GRP1_ReleaseReset\n
 653:Drivers/STM32F1xx_HAL_Driver/Inc/stm32f1xx_ll_bus.h ****   *         APB1RSTR     SPI2RST       LL_APB1_GRP1_ReleaseReset\n
 654:Drivers/STM32F1xx_HAL_Driver/Inc/stm32f1xx_ll_bus.h ****   *         APB1RSTR     SPI3RST       LL_APB1_GRP1_ReleaseReset\n
 655:Drivers/STM32F1xx_HAL_Driver/Inc/stm32f1xx_ll_bus.h ****   *         APB1RSTR     TIM12RST      LL_APB1_GRP1_ReleaseReset\n
 656:Drivers/STM32F1xx_HAL_Driver/Inc/stm32f1xx_ll_bus.h ****   *         APB1RSTR     TIM13RST      LL_APB1_GRP1_ReleaseReset\n
 657:Drivers/STM32F1xx_HAL_Driver/Inc/stm32f1xx_ll_bus.h ****   *         APB1RSTR     TIM14RST      LL_APB1_GRP1_ReleaseReset\n
 658:Drivers/STM32F1xx_HAL_Driver/Inc/stm32f1xx_ll_bus.h ****   *         APB1RSTR     TIM2RST       LL_APB1_GRP1_ReleaseReset\n
 659:Drivers/STM32F1xx_HAL_Driver/Inc/stm32f1xx_ll_bus.h ****   *         APB1RSTR     TIM3RST       LL_APB1_GRP1_ReleaseReset\n
 660:Drivers/STM32F1xx_HAL_Driver/Inc/stm32f1xx_ll_bus.h ****   *         APB1RSTR     TIM4RST       LL_APB1_GRP1_ReleaseReset\n
 661:Drivers/STM32F1xx_HAL_Driver/Inc/stm32f1xx_ll_bus.h ****   *         APB1RSTR     TIM5RST       LL_APB1_GRP1_ReleaseReset\n
 662:Drivers/STM32F1xx_HAL_Driver/Inc/stm32f1xx_ll_bus.h ****   *         APB1RSTR     TIM6RST       LL_APB1_GRP1_ReleaseReset\n
 663:Drivers/STM32F1xx_HAL_Driver/Inc/stm32f1xx_ll_bus.h ****   *         APB1RSTR     TIM7RST       LL_APB1_GRP1_ReleaseReset\n
 664:Drivers/STM32F1xx_HAL_Driver/Inc/stm32f1xx_ll_bus.h ****   *         APB1RSTR     UART4RST      LL_APB1_GRP1_ReleaseReset\n
ARM GAS  /tmp/ccSSjYDs.s 			page 16


 665:Drivers/STM32F1xx_HAL_Driver/Inc/stm32f1xx_ll_bus.h ****   *         APB1RSTR     UART5RST      LL_APB1_GRP1_ReleaseReset\n
 666:Drivers/STM32F1xx_HAL_Driver/Inc/stm32f1xx_ll_bus.h ****   *         APB1RSTR     USART2RST     LL_APB1_GRP1_ReleaseReset\n
 667:Drivers/STM32F1xx_HAL_Driver/Inc/stm32f1xx_ll_bus.h ****   *         APB1RSTR     USART3RST     LL_APB1_GRP1_ReleaseReset\n
 668:Drivers/STM32F1xx_HAL_Driver/Inc/stm32f1xx_ll_bus.h ****   *         APB1RSTR     USBRST        LL_APB1_GRP1_ReleaseReset\n
 669:Drivers/STM32F1xx_HAL_Driver/Inc/stm32f1xx_ll_bus.h ****   *         APB1RSTR     WWDGRST       LL_APB1_GRP1_ReleaseReset
 670:Drivers/STM32F1xx_HAL_Driver/Inc/stm32f1xx_ll_bus.h ****   * @param  Periphs This parameter can be a combination of the following values:
 671:Drivers/STM32F1xx_HAL_Driver/Inc/stm32f1xx_ll_bus.h ****   *         @arg @ref LL_APB1_GRP1_PERIPH_ALL
 672:Drivers/STM32F1xx_HAL_Driver/Inc/stm32f1xx_ll_bus.h ****   *         @arg @ref LL_APB1_GRP1_PERIPH_BKP
 673:Drivers/STM32F1xx_HAL_Driver/Inc/stm32f1xx_ll_bus.h ****   *         @arg @ref LL_APB1_GRP1_PERIPH_CAN1 (*)
 674:Drivers/STM32F1xx_HAL_Driver/Inc/stm32f1xx_ll_bus.h ****   *         @arg @ref LL_APB1_GRP1_PERIPH_CAN2 (*)
 675:Drivers/STM32F1xx_HAL_Driver/Inc/stm32f1xx_ll_bus.h ****   *         @arg @ref LL_APB1_GRP1_PERIPH_CEC (*)
 676:Drivers/STM32F1xx_HAL_Driver/Inc/stm32f1xx_ll_bus.h ****   *         @arg @ref LL_APB1_GRP1_PERIPH_DAC1 (*)
 677:Drivers/STM32F1xx_HAL_Driver/Inc/stm32f1xx_ll_bus.h ****   *         @arg @ref LL_APB1_GRP1_PERIPH_I2C1
 678:Drivers/STM32F1xx_HAL_Driver/Inc/stm32f1xx_ll_bus.h ****   *         @arg @ref LL_APB1_GRP1_PERIPH_I2C2 (*)
 679:Drivers/STM32F1xx_HAL_Driver/Inc/stm32f1xx_ll_bus.h ****   *         @arg @ref LL_APB1_GRP1_PERIPH_PWR
 680:Drivers/STM32F1xx_HAL_Driver/Inc/stm32f1xx_ll_bus.h ****   *         @arg @ref LL_APB1_GRP1_PERIPH_SPI2 (*)
 681:Drivers/STM32F1xx_HAL_Driver/Inc/stm32f1xx_ll_bus.h ****   *         @arg @ref LL_APB1_GRP1_PERIPH_SPI3 (*)
 682:Drivers/STM32F1xx_HAL_Driver/Inc/stm32f1xx_ll_bus.h ****   *         @arg @ref LL_APB1_GRP1_PERIPH_TIM12 (*)
 683:Drivers/STM32F1xx_HAL_Driver/Inc/stm32f1xx_ll_bus.h ****   *         @arg @ref LL_APB1_GRP1_PERIPH_TIM13 (*)
 684:Drivers/STM32F1xx_HAL_Driver/Inc/stm32f1xx_ll_bus.h ****   *         @arg @ref LL_APB1_GRP1_PERIPH_TIM14 (*)
 685:Drivers/STM32F1xx_HAL_Driver/Inc/stm32f1xx_ll_bus.h ****   *         @arg @ref LL_APB1_GRP1_PERIPH_TIM2
 686:Drivers/STM32F1xx_HAL_Driver/Inc/stm32f1xx_ll_bus.h ****   *         @arg @ref LL_APB1_GRP1_PERIPH_TIM3
 687:Drivers/STM32F1xx_HAL_Driver/Inc/stm32f1xx_ll_bus.h ****   *         @arg @ref LL_APB1_GRP1_PERIPH_TIM4 (*)
 688:Drivers/STM32F1xx_HAL_Driver/Inc/stm32f1xx_ll_bus.h ****   *         @arg @ref LL_APB1_GRP1_PERIPH_TIM5 (*)
 689:Drivers/STM32F1xx_HAL_Driver/Inc/stm32f1xx_ll_bus.h ****   *         @arg @ref LL_APB1_GRP1_PERIPH_TIM6 (*)
 690:Drivers/STM32F1xx_HAL_Driver/Inc/stm32f1xx_ll_bus.h ****   *         @arg @ref LL_APB1_GRP1_PERIPH_TIM7 (*)
 691:Drivers/STM32F1xx_HAL_Driver/Inc/stm32f1xx_ll_bus.h ****   *         @arg @ref LL_APB1_GRP1_PERIPH_UART4 (*)
 692:Drivers/STM32F1xx_HAL_Driver/Inc/stm32f1xx_ll_bus.h ****   *         @arg @ref LL_APB1_GRP1_PERIPH_UART5 (*)
 693:Drivers/STM32F1xx_HAL_Driver/Inc/stm32f1xx_ll_bus.h ****   *         @arg @ref LL_APB1_GRP1_PERIPH_USART2
 694:Drivers/STM32F1xx_HAL_Driver/Inc/stm32f1xx_ll_bus.h ****   *         @arg @ref LL_APB1_GRP1_PERIPH_USART3 (*)
 695:Drivers/STM32F1xx_HAL_Driver/Inc/stm32f1xx_ll_bus.h ****   *         @arg @ref LL_APB1_GRP1_PERIPH_USB (*)
 696:Drivers/STM32F1xx_HAL_Driver/Inc/stm32f1xx_ll_bus.h ****   *         @arg @ref LL_APB1_GRP1_PERIPH_WWDG
 697:Drivers/STM32F1xx_HAL_Driver/Inc/stm32f1xx_ll_bus.h ****   *
 698:Drivers/STM32F1xx_HAL_Driver/Inc/stm32f1xx_ll_bus.h ****   *         (*) value not defined in all devices.
 699:Drivers/STM32F1xx_HAL_Driver/Inc/stm32f1xx_ll_bus.h ****   * @retval None
 700:Drivers/STM32F1xx_HAL_Driver/Inc/stm32f1xx_ll_bus.h **** */
 701:Drivers/STM32F1xx_HAL_Driver/Inc/stm32f1xx_ll_bus.h **** __STATIC_INLINE void LL_APB1_GRP1_ReleaseReset(uint32_t Periphs)
  71              		.loc 2 701 22 view .LVU15
  72              	.LBB23:
 702:Drivers/STM32F1xx_HAL_Driver/Inc/stm32f1xx_ll_bus.h **** {
 703:Drivers/STM32F1xx_HAL_Driver/Inc/stm32f1xx_ll_bus.h ****   CLEAR_BIT(RCC->APB1RSTR, Periphs);
  73              		.loc 2 703 3 view .LVU16
  74 001c 1A69     		ldr	r2, [r3, #16]
  75 001e 22F40012 		bic	r2, r2, #2097152
  76 0022 1A61     		str	r2, [r3, #16]
  77              	.LBE23:
  78              	.LBE22:
  90:Drivers/STM32F1xx_HAL_Driver/Src/stm32f1xx_ll_i2c.c **** 
  79              		.loc 1 90 15 is_stmt 0 view .LVU17
  80 0024 0020     		movs	r0, #0
  81              	.LVL4:
  82              	.LBB25:
  83              	.LBB24:
 704:Drivers/STM32F1xx_HAL_Driver/Inc/stm32f1xx_ll_bus.h **** }
  84              		.loc 2 704 1 view .LVU18
  85 0026 7047     		bx	lr
  86              	.LVL5:
ARM GAS  /tmp/ccSSjYDs.s 			page 17


  87              	.L6:
  88              		.loc 2 704 1 view .LVU19
  89              	.LBE24:
  90              	.LBE25:
 107:Drivers/STM32F1xx_HAL_Driver/Src/stm32f1xx_ll_i2c.c **** 
  91              		.loc 1 107 5 is_stmt 1 view .LVU20
  92              	.LBB26:
  93              	.LBI26:
 638:Drivers/STM32F1xx_HAL_Driver/Inc/stm32f1xx_ll_bus.h **** {
  94              		.loc 2 638 22 view .LVU21
  95              	.LBB27:
 640:Drivers/STM32F1xx_HAL_Driver/Inc/stm32f1xx_ll_bus.h **** }
  96              		.loc 2 640 3 view .LVU22
  97 0028 03F5DC33 		add	r3, r3, #112640
  98 002c 1A69     		ldr	r2, [r3, #16]
  99 002e 42F48002 		orr	r2, r2, #4194304
 100 0032 1A61     		str	r2, [r3, #16]
 101              	.LVL6:
 640:Drivers/STM32F1xx_HAL_Driver/Inc/stm32f1xx_ll_bus.h **** }
 102              		.loc 2 640 3 is_stmt 0 view .LVU23
 103              	.LBE27:
 104              	.LBE26:
 110:Drivers/STM32F1xx_HAL_Driver/Src/stm32f1xx_ll_i2c.c **** 
 105              		.loc 1 110 5 is_stmt 1 view .LVU24
 106              	.LBB28:
 107              	.LBI28:
 701:Drivers/STM32F1xx_HAL_Driver/Inc/stm32f1xx_ll_bus.h **** {
 108              		.loc 2 701 22 view .LVU25
 109              	.LBB29:
 703:Drivers/STM32F1xx_HAL_Driver/Inc/stm32f1xx_ll_bus.h **** }
 110              		.loc 2 703 3 view .LVU26
 111 0034 1A69     		ldr	r2, [r3, #16]
 112 0036 22F48002 		bic	r2, r2, #4194304
 113 003a 1A61     		str	r2, [r3, #16]
 114              	.LBE29:
 115              	.LBE28:
  90:Drivers/STM32F1xx_HAL_Driver/Src/stm32f1xx_ll_i2c.c **** 
 116              		.loc 1 90 15 is_stmt 0 view .LVU27
 117 003c 0020     		movs	r0, #0
 118              	.LVL7:
 119              	.LBB31:
 120              	.LBB30:
 121              		.loc 2 704 1 view .LVU28
 122 003e 7047     		bx	lr
 123              	.L8:
 124              		.align	2
 125              	.L7:
 126 0040 00540040 		.word	1073763328
 127 0044 00580040 		.word	1073764352
 128              	.LBE30:
 129              	.LBE31:
 130              		.cfi_endproc
 131              	.LFE263:
 133              		.section	.text.LL_I2C_Init,"ax",%progbits
 134              		.align	1
 135              		.global	LL_I2C_Init
 136              		.syntax unified
ARM GAS  /tmp/ccSSjYDs.s 			page 18


 137              		.thumb
 138              		.thumb_func
 140              	LL_I2C_Init:
 141              	.LVL8:
 142              	.LFB264:
 121:Drivers/STM32F1xx_HAL_Driver/Src/stm32f1xx_ll_i2c.c **** 
 122:Drivers/STM32F1xx_HAL_Driver/Src/stm32f1xx_ll_i2c.c **** /**
 123:Drivers/STM32F1xx_HAL_Driver/Src/stm32f1xx_ll_i2c.c ****   * @brief  Initialize the I2C registers according to the specified parameters in I2C_InitStruct.
 124:Drivers/STM32F1xx_HAL_Driver/Src/stm32f1xx_ll_i2c.c ****   * @param  I2Cx I2C Instance.
 125:Drivers/STM32F1xx_HAL_Driver/Src/stm32f1xx_ll_i2c.c ****   * @param  I2C_InitStruct pointer to a @ref LL_I2C_InitTypeDef structure.
 126:Drivers/STM32F1xx_HAL_Driver/Src/stm32f1xx_ll_i2c.c ****   * @retval An ErrorStatus enumeration value:
 127:Drivers/STM32F1xx_HAL_Driver/Src/stm32f1xx_ll_i2c.c ****   *          - SUCCESS  I2C registers are initialized
 128:Drivers/STM32F1xx_HAL_Driver/Src/stm32f1xx_ll_i2c.c ****   *          - ERROR  Not applicable
 129:Drivers/STM32F1xx_HAL_Driver/Src/stm32f1xx_ll_i2c.c ****   */
 130:Drivers/STM32F1xx_HAL_Driver/Src/stm32f1xx_ll_i2c.c **** uint32_t LL_I2C_Init(I2C_TypeDef *I2Cx, LL_I2C_InitTypeDef *I2C_InitStruct)
 131:Drivers/STM32F1xx_HAL_Driver/Src/stm32f1xx_ll_i2c.c **** {
 143              		.loc 1 131 1 is_stmt 1 view -0
 144              		.cfi_startproc
 145              		@ args = 0, pretend = 0, frame = 16
 146              		@ frame_needed = 0, uses_anonymous_args = 0
 147              		.loc 1 131 1 is_stmt 0 view .LVU30
 148 0000 F0B5     		push	{r4, r5, r6, r7, lr}
 149              	.LCFI0:
 150              		.cfi_def_cfa_offset 20
 151              		.cfi_offset 4, -20
 152              		.cfi_offset 5, -16
 153              		.cfi_offset 6, -12
 154              		.cfi_offset 7, -8
 155              		.cfi_offset 14, -4
 156 0002 85B0     		sub	sp, sp, #20
 157              	.LCFI1:
 158              		.cfi_def_cfa_offset 40
 159 0004 0446     		mov	r4, r0
 160 0006 0D46     		mov	r5, r1
 132:Drivers/STM32F1xx_HAL_Driver/Src/stm32f1xx_ll_i2c.c ****   LL_RCC_ClocksTypeDef rcc_clocks;
 161              		.loc 1 132 3 is_stmt 1 view .LVU31
 133:Drivers/STM32F1xx_HAL_Driver/Src/stm32f1xx_ll_i2c.c **** 
 134:Drivers/STM32F1xx_HAL_Driver/Src/stm32f1xx_ll_i2c.c ****   /* Check the I2C Instance I2Cx */
 135:Drivers/STM32F1xx_HAL_Driver/Src/stm32f1xx_ll_i2c.c ****   assert_param(IS_I2C_ALL_INSTANCE(I2Cx));
 162              		.loc 1 135 3 view .LVU32
 136:Drivers/STM32F1xx_HAL_Driver/Src/stm32f1xx_ll_i2c.c **** 
 137:Drivers/STM32F1xx_HAL_Driver/Src/stm32f1xx_ll_i2c.c ****   /* Check the I2C parameters from I2C_InitStruct */
 138:Drivers/STM32F1xx_HAL_Driver/Src/stm32f1xx_ll_i2c.c ****   assert_param(IS_LL_I2C_PERIPHERAL_MODE(I2C_InitStruct->PeripheralMode));
 163              		.loc 1 138 3 view .LVU33
 139:Drivers/STM32F1xx_HAL_Driver/Src/stm32f1xx_ll_i2c.c ****   assert_param(IS_LL_I2C_CLOCK_SPEED(I2C_InitStruct->ClockSpeed));
 164              		.loc 1 139 3 view .LVU34
 140:Drivers/STM32F1xx_HAL_Driver/Src/stm32f1xx_ll_i2c.c ****   assert_param(IS_LL_I2C_DUTY_CYCLE(I2C_InitStruct->DutyCycle));
 165              		.loc 1 140 3 view .LVU35
 141:Drivers/STM32F1xx_HAL_Driver/Src/stm32f1xx_ll_i2c.c ****   assert_param(IS_LL_I2C_OWN_ADDRESS1(I2C_InitStruct->OwnAddress1));
 166              		.loc 1 141 3 view .LVU36
 142:Drivers/STM32F1xx_HAL_Driver/Src/stm32f1xx_ll_i2c.c ****   assert_param(IS_LL_I2C_TYPE_ACKNOWLEDGE(I2C_InitStruct->TypeAcknowledge));
 167              		.loc 1 142 3 view .LVU37
 143:Drivers/STM32F1xx_HAL_Driver/Src/stm32f1xx_ll_i2c.c ****   assert_param(IS_LL_I2C_OWN_ADDRSIZE(I2C_InitStruct->OwnAddrSize));
 168              		.loc 1 143 3 view .LVU38
 144:Drivers/STM32F1xx_HAL_Driver/Src/stm32f1xx_ll_i2c.c **** 
 145:Drivers/STM32F1xx_HAL_Driver/Src/stm32f1xx_ll_i2c.c ****   /* Disable the selected I2Cx Peripheral */
 146:Drivers/STM32F1xx_HAL_Driver/Src/stm32f1xx_ll_i2c.c ****   LL_I2C_Disable(I2Cx);
ARM GAS  /tmp/ccSSjYDs.s 			page 19


 169              		.loc 1 146 3 view .LVU39
 170              	.LVL9:
 171              	.LBB44:
 172              	.LBI44:
 173              		.file 3 "Drivers/STM32F1xx_HAL_Driver/Inc/stm32f1xx_ll_i2c.h"
   1:Drivers/STM32F1xx_HAL_Driver/Inc/stm32f1xx_ll_i2c.h **** /**
   2:Drivers/STM32F1xx_HAL_Driver/Inc/stm32f1xx_ll_i2c.h ****   ******************************************************************************
   3:Drivers/STM32F1xx_HAL_Driver/Inc/stm32f1xx_ll_i2c.h ****   * @file    stm32f1xx_ll_i2c.h
   4:Drivers/STM32F1xx_HAL_Driver/Inc/stm32f1xx_ll_i2c.h ****   * @author  MCD Application Team
   5:Drivers/STM32F1xx_HAL_Driver/Inc/stm32f1xx_ll_i2c.h ****   * @brief   Header file of I2C LL module.
   6:Drivers/STM32F1xx_HAL_Driver/Inc/stm32f1xx_ll_i2c.h ****   ******************************************************************************
   7:Drivers/STM32F1xx_HAL_Driver/Inc/stm32f1xx_ll_i2c.h ****   * @attention
   8:Drivers/STM32F1xx_HAL_Driver/Inc/stm32f1xx_ll_i2c.h ****   *
   9:Drivers/STM32F1xx_HAL_Driver/Inc/stm32f1xx_ll_i2c.h ****   * <h2><center>&copy; Copyright (c) 2016 STMicroelectronics.
  10:Drivers/STM32F1xx_HAL_Driver/Inc/stm32f1xx_ll_i2c.h ****   * All rights reserved.</center></h2>
  11:Drivers/STM32F1xx_HAL_Driver/Inc/stm32f1xx_ll_i2c.h ****   *
  12:Drivers/STM32F1xx_HAL_Driver/Inc/stm32f1xx_ll_i2c.h ****   * This software component is licensed by ST under BSD 3-Clause license,
  13:Drivers/STM32F1xx_HAL_Driver/Inc/stm32f1xx_ll_i2c.h ****   * the "License"; You may not use this file except in compliance with the
  14:Drivers/STM32F1xx_HAL_Driver/Inc/stm32f1xx_ll_i2c.h ****   * License. You may obtain a copy of the License at:
  15:Drivers/STM32F1xx_HAL_Driver/Inc/stm32f1xx_ll_i2c.h ****   *                        opensource.org/licenses/BSD-3-Clause
  16:Drivers/STM32F1xx_HAL_Driver/Inc/stm32f1xx_ll_i2c.h ****   *
  17:Drivers/STM32F1xx_HAL_Driver/Inc/stm32f1xx_ll_i2c.h ****   ******************************************************************************
  18:Drivers/STM32F1xx_HAL_Driver/Inc/stm32f1xx_ll_i2c.h ****   */
  19:Drivers/STM32F1xx_HAL_Driver/Inc/stm32f1xx_ll_i2c.h **** 
  20:Drivers/STM32F1xx_HAL_Driver/Inc/stm32f1xx_ll_i2c.h **** /* Define to prevent recursive inclusion -------------------------------------*/
  21:Drivers/STM32F1xx_HAL_Driver/Inc/stm32f1xx_ll_i2c.h **** #ifndef __STM32F1xx_LL_I2C_H
  22:Drivers/STM32F1xx_HAL_Driver/Inc/stm32f1xx_ll_i2c.h **** #define __STM32F1xx_LL_I2C_H
  23:Drivers/STM32F1xx_HAL_Driver/Inc/stm32f1xx_ll_i2c.h **** 
  24:Drivers/STM32F1xx_HAL_Driver/Inc/stm32f1xx_ll_i2c.h **** #ifdef __cplusplus
  25:Drivers/STM32F1xx_HAL_Driver/Inc/stm32f1xx_ll_i2c.h **** extern "C" {
  26:Drivers/STM32F1xx_HAL_Driver/Inc/stm32f1xx_ll_i2c.h **** #endif
  27:Drivers/STM32F1xx_HAL_Driver/Inc/stm32f1xx_ll_i2c.h **** 
  28:Drivers/STM32F1xx_HAL_Driver/Inc/stm32f1xx_ll_i2c.h **** /* Includes ------------------------------------------------------------------*/
  29:Drivers/STM32F1xx_HAL_Driver/Inc/stm32f1xx_ll_i2c.h **** #include "stm32f1xx.h"
  30:Drivers/STM32F1xx_HAL_Driver/Inc/stm32f1xx_ll_i2c.h **** 
  31:Drivers/STM32F1xx_HAL_Driver/Inc/stm32f1xx_ll_i2c.h **** /** @addtogroup STM32F1xx_LL_Driver
  32:Drivers/STM32F1xx_HAL_Driver/Inc/stm32f1xx_ll_i2c.h ****   * @{
  33:Drivers/STM32F1xx_HAL_Driver/Inc/stm32f1xx_ll_i2c.h ****   */
  34:Drivers/STM32F1xx_HAL_Driver/Inc/stm32f1xx_ll_i2c.h **** 
  35:Drivers/STM32F1xx_HAL_Driver/Inc/stm32f1xx_ll_i2c.h **** #if defined (I2C1) || defined (I2C2)
  36:Drivers/STM32F1xx_HAL_Driver/Inc/stm32f1xx_ll_i2c.h **** 
  37:Drivers/STM32F1xx_HAL_Driver/Inc/stm32f1xx_ll_i2c.h **** /** @defgroup I2C_LL I2C
  38:Drivers/STM32F1xx_HAL_Driver/Inc/stm32f1xx_ll_i2c.h ****   * @{
  39:Drivers/STM32F1xx_HAL_Driver/Inc/stm32f1xx_ll_i2c.h ****   */
  40:Drivers/STM32F1xx_HAL_Driver/Inc/stm32f1xx_ll_i2c.h **** 
  41:Drivers/STM32F1xx_HAL_Driver/Inc/stm32f1xx_ll_i2c.h **** /* Private types -------------------------------------------------------------*/
  42:Drivers/STM32F1xx_HAL_Driver/Inc/stm32f1xx_ll_i2c.h **** /* Private variables ---------------------------------------------------------*/
  43:Drivers/STM32F1xx_HAL_Driver/Inc/stm32f1xx_ll_i2c.h **** 
  44:Drivers/STM32F1xx_HAL_Driver/Inc/stm32f1xx_ll_i2c.h **** /* Private constants ---------------------------------------------------------*/
  45:Drivers/STM32F1xx_HAL_Driver/Inc/stm32f1xx_ll_i2c.h **** /** @defgroup I2C_LL_Private_Constants I2C Private Constants
  46:Drivers/STM32F1xx_HAL_Driver/Inc/stm32f1xx_ll_i2c.h ****   * @{
  47:Drivers/STM32F1xx_HAL_Driver/Inc/stm32f1xx_ll_i2c.h ****   */
  48:Drivers/STM32F1xx_HAL_Driver/Inc/stm32f1xx_ll_i2c.h **** 
  49:Drivers/STM32F1xx_HAL_Driver/Inc/stm32f1xx_ll_i2c.h **** /* Defines used to perform compute and check in the macros */
  50:Drivers/STM32F1xx_HAL_Driver/Inc/stm32f1xx_ll_i2c.h **** #define LL_I2C_MAX_SPEED_STANDARD           100000U
  51:Drivers/STM32F1xx_HAL_Driver/Inc/stm32f1xx_ll_i2c.h **** #define LL_I2C_MAX_SPEED_FAST               400000U
  52:Drivers/STM32F1xx_HAL_Driver/Inc/stm32f1xx_ll_i2c.h **** /**
ARM GAS  /tmp/ccSSjYDs.s 			page 20


  53:Drivers/STM32F1xx_HAL_Driver/Inc/stm32f1xx_ll_i2c.h ****   * @}
  54:Drivers/STM32F1xx_HAL_Driver/Inc/stm32f1xx_ll_i2c.h ****   */
  55:Drivers/STM32F1xx_HAL_Driver/Inc/stm32f1xx_ll_i2c.h **** 
  56:Drivers/STM32F1xx_HAL_Driver/Inc/stm32f1xx_ll_i2c.h **** /* Private macros ------------------------------------------------------------*/
  57:Drivers/STM32F1xx_HAL_Driver/Inc/stm32f1xx_ll_i2c.h **** #if defined(USE_FULL_LL_DRIVER)
  58:Drivers/STM32F1xx_HAL_Driver/Inc/stm32f1xx_ll_i2c.h **** /** @defgroup I2C_LL_Private_Macros I2C Private Macros
  59:Drivers/STM32F1xx_HAL_Driver/Inc/stm32f1xx_ll_i2c.h ****   * @{
  60:Drivers/STM32F1xx_HAL_Driver/Inc/stm32f1xx_ll_i2c.h ****   */
  61:Drivers/STM32F1xx_HAL_Driver/Inc/stm32f1xx_ll_i2c.h **** /**
  62:Drivers/STM32F1xx_HAL_Driver/Inc/stm32f1xx_ll_i2c.h ****   * @}
  63:Drivers/STM32F1xx_HAL_Driver/Inc/stm32f1xx_ll_i2c.h ****   */
  64:Drivers/STM32F1xx_HAL_Driver/Inc/stm32f1xx_ll_i2c.h **** #endif /*USE_FULL_LL_DRIVER*/
  65:Drivers/STM32F1xx_HAL_Driver/Inc/stm32f1xx_ll_i2c.h **** 
  66:Drivers/STM32F1xx_HAL_Driver/Inc/stm32f1xx_ll_i2c.h **** /* Exported types ------------------------------------------------------------*/
  67:Drivers/STM32F1xx_HAL_Driver/Inc/stm32f1xx_ll_i2c.h **** #if defined(USE_FULL_LL_DRIVER)
  68:Drivers/STM32F1xx_HAL_Driver/Inc/stm32f1xx_ll_i2c.h **** /** @defgroup I2C_LL_ES_INIT I2C Exported Init structure
  69:Drivers/STM32F1xx_HAL_Driver/Inc/stm32f1xx_ll_i2c.h ****   * @{
  70:Drivers/STM32F1xx_HAL_Driver/Inc/stm32f1xx_ll_i2c.h ****   */
  71:Drivers/STM32F1xx_HAL_Driver/Inc/stm32f1xx_ll_i2c.h **** typedef struct
  72:Drivers/STM32F1xx_HAL_Driver/Inc/stm32f1xx_ll_i2c.h **** {
  73:Drivers/STM32F1xx_HAL_Driver/Inc/stm32f1xx_ll_i2c.h ****   uint32_t PeripheralMode;      /*!< Specifies the peripheral mode.
  74:Drivers/STM32F1xx_HAL_Driver/Inc/stm32f1xx_ll_i2c.h ****                                      This parameter can be a value of @ref I2C_LL_EC_PERIPHERAL_MOD
  75:Drivers/STM32F1xx_HAL_Driver/Inc/stm32f1xx_ll_i2c.h **** 
  76:Drivers/STM32F1xx_HAL_Driver/Inc/stm32f1xx_ll_i2c.h ****                                      This feature can be modified afterwards using unitary function
  77:Drivers/STM32F1xx_HAL_Driver/Inc/stm32f1xx_ll_i2c.h **** 
  78:Drivers/STM32F1xx_HAL_Driver/Inc/stm32f1xx_ll_i2c.h ****   uint32_t ClockSpeed;          /*!< Specifies the clock frequency.
  79:Drivers/STM32F1xx_HAL_Driver/Inc/stm32f1xx_ll_i2c.h ****                                      This parameter must be set to a value lower than 400kHz (in Hz
  80:Drivers/STM32F1xx_HAL_Driver/Inc/stm32f1xx_ll_i2c.h **** 
  81:Drivers/STM32F1xx_HAL_Driver/Inc/stm32f1xx_ll_i2c.h ****                                      This feature can be modified afterwards using unitary function
  82:Drivers/STM32F1xx_HAL_Driver/Inc/stm32f1xx_ll_i2c.h ****                                      or @ref LL_I2C_SetDutyCycle() or @ref LL_I2C_SetClockSpeedMode
  83:Drivers/STM32F1xx_HAL_Driver/Inc/stm32f1xx_ll_i2c.h **** 
  84:Drivers/STM32F1xx_HAL_Driver/Inc/stm32f1xx_ll_i2c.h ****   uint32_t DutyCycle;           /*!< Specifies the I2C fast mode duty cycle.
  85:Drivers/STM32F1xx_HAL_Driver/Inc/stm32f1xx_ll_i2c.h ****                                      This parameter can be a value of @ref I2C_LL_EC_DUTYCYCLE
  86:Drivers/STM32F1xx_HAL_Driver/Inc/stm32f1xx_ll_i2c.h **** 
  87:Drivers/STM32F1xx_HAL_Driver/Inc/stm32f1xx_ll_i2c.h ****                                      This feature can be modified afterwards using unitary function
  88:Drivers/STM32F1xx_HAL_Driver/Inc/stm32f1xx_ll_i2c.h **** 
  89:Drivers/STM32F1xx_HAL_Driver/Inc/stm32f1xx_ll_i2c.h ****   uint32_t OwnAddress1;         /*!< Specifies the device own address 1.
  90:Drivers/STM32F1xx_HAL_Driver/Inc/stm32f1xx_ll_i2c.h ****                                      This parameter must be a value between Min_Data = 0x00 and Max
  91:Drivers/STM32F1xx_HAL_Driver/Inc/stm32f1xx_ll_i2c.h **** 
  92:Drivers/STM32F1xx_HAL_Driver/Inc/stm32f1xx_ll_i2c.h ****                                      This feature can be modified afterwards using unitary function
  93:Drivers/STM32F1xx_HAL_Driver/Inc/stm32f1xx_ll_i2c.h **** 
  94:Drivers/STM32F1xx_HAL_Driver/Inc/stm32f1xx_ll_i2c.h ****   uint32_t TypeAcknowledge;     /*!< Specifies the ACKnowledge or Non ACKnowledge condition after t
  95:Drivers/STM32F1xx_HAL_Driver/Inc/stm32f1xx_ll_i2c.h ****                                      This parameter can be a value of @ref I2C_LL_EC_I2C_ACKNOWLEDG
  96:Drivers/STM32F1xx_HAL_Driver/Inc/stm32f1xx_ll_i2c.h **** 
  97:Drivers/STM32F1xx_HAL_Driver/Inc/stm32f1xx_ll_i2c.h ****                                      This feature can be modified afterwards using unitary function
  98:Drivers/STM32F1xx_HAL_Driver/Inc/stm32f1xx_ll_i2c.h **** 
  99:Drivers/STM32F1xx_HAL_Driver/Inc/stm32f1xx_ll_i2c.h ****   uint32_t OwnAddrSize;         /*!< Specifies the device own address 1 size (7-bit or 10-bit).
 100:Drivers/STM32F1xx_HAL_Driver/Inc/stm32f1xx_ll_i2c.h ****                                      This parameter can be a value of @ref I2C_LL_EC_OWNADDRESS1
 101:Drivers/STM32F1xx_HAL_Driver/Inc/stm32f1xx_ll_i2c.h **** 
 102:Drivers/STM32F1xx_HAL_Driver/Inc/stm32f1xx_ll_i2c.h ****                                      This feature can be modified afterwards using unitary function
 103:Drivers/STM32F1xx_HAL_Driver/Inc/stm32f1xx_ll_i2c.h **** } LL_I2C_InitTypeDef;
 104:Drivers/STM32F1xx_HAL_Driver/Inc/stm32f1xx_ll_i2c.h **** /**
 105:Drivers/STM32F1xx_HAL_Driver/Inc/stm32f1xx_ll_i2c.h ****   * @}
 106:Drivers/STM32F1xx_HAL_Driver/Inc/stm32f1xx_ll_i2c.h ****   */
 107:Drivers/STM32F1xx_HAL_Driver/Inc/stm32f1xx_ll_i2c.h **** #endif /*USE_FULL_LL_DRIVER*/
 108:Drivers/STM32F1xx_HAL_Driver/Inc/stm32f1xx_ll_i2c.h **** 
 109:Drivers/STM32F1xx_HAL_Driver/Inc/stm32f1xx_ll_i2c.h **** /* Exported constants --------------------------------------------------------*/
ARM GAS  /tmp/ccSSjYDs.s 			page 21


 110:Drivers/STM32F1xx_HAL_Driver/Inc/stm32f1xx_ll_i2c.h **** /** @defgroup I2C_LL_Exported_Constants I2C Exported Constants
 111:Drivers/STM32F1xx_HAL_Driver/Inc/stm32f1xx_ll_i2c.h ****   * @{
 112:Drivers/STM32F1xx_HAL_Driver/Inc/stm32f1xx_ll_i2c.h ****   */
 113:Drivers/STM32F1xx_HAL_Driver/Inc/stm32f1xx_ll_i2c.h **** 
 114:Drivers/STM32F1xx_HAL_Driver/Inc/stm32f1xx_ll_i2c.h **** /** @defgroup I2C_LL_EC_GET_FLAG Get Flags Defines
 115:Drivers/STM32F1xx_HAL_Driver/Inc/stm32f1xx_ll_i2c.h ****   * @brief    Flags defines which can be used with LL_I2C_ReadReg function
 116:Drivers/STM32F1xx_HAL_Driver/Inc/stm32f1xx_ll_i2c.h ****   * @{
 117:Drivers/STM32F1xx_HAL_Driver/Inc/stm32f1xx_ll_i2c.h ****   */
 118:Drivers/STM32F1xx_HAL_Driver/Inc/stm32f1xx_ll_i2c.h **** #define LL_I2C_SR1_SB                       I2C_SR1_SB              /*!< Start Bit (master mode)   
 119:Drivers/STM32F1xx_HAL_Driver/Inc/stm32f1xx_ll_i2c.h **** #define LL_I2C_SR1_ADDR                     I2C_SR1_ADDR            /*!< Address sent (master mode)
 120:Drivers/STM32F1xx_HAL_Driver/Inc/stm32f1xx_ll_i2c.h ****                                                                          Address matched flag (slav
 121:Drivers/STM32F1xx_HAL_Driver/Inc/stm32f1xx_ll_i2c.h **** #define LL_I2C_SR1_BTF                      I2C_SR1_BTF             /*!< Byte Transfer Finished fla
 122:Drivers/STM32F1xx_HAL_Driver/Inc/stm32f1xx_ll_i2c.h **** #define LL_I2C_SR1_ADD10                    I2C_SR1_ADD10           /*!< 10-bit header sent (master
 123:Drivers/STM32F1xx_HAL_Driver/Inc/stm32f1xx_ll_i2c.h **** #define LL_I2C_SR1_STOPF                    I2C_SR1_STOPF           /*!< Stop detection flag (slave
 124:Drivers/STM32F1xx_HAL_Driver/Inc/stm32f1xx_ll_i2c.h **** #define LL_I2C_SR1_RXNE                     I2C_SR1_RXNE            /*!< Data register not empty (r
 125:Drivers/STM32F1xx_HAL_Driver/Inc/stm32f1xx_ll_i2c.h **** #define LL_I2C_SR1_TXE                      I2C_SR1_TXE             /*!< Data register empty (trans
 126:Drivers/STM32F1xx_HAL_Driver/Inc/stm32f1xx_ll_i2c.h **** #define LL_I2C_SR1_BERR                     I2C_SR1_BERR            /*!< Bus error                 
 127:Drivers/STM32F1xx_HAL_Driver/Inc/stm32f1xx_ll_i2c.h **** #define LL_I2C_SR1_ARLO                     I2C_SR1_ARLO            /*!< Arbitration lost          
 128:Drivers/STM32F1xx_HAL_Driver/Inc/stm32f1xx_ll_i2c.h **** #define LL_I2C_SR1_AF                       I2C_SR1_AF              /*!< Acknowledge failure flag  
 129:Drivers/STM32F1xx_HAL_Driver/Inc/stm32f1xx_ll_i2c.h **** #define LL_I2C_SR1_OVR                      I2C_SR1_OVR             /*!< Overrun/Underrun          
 130:Drivers/STM32F1xx_HAL_Driver/Inc/stm32f1xx_ll_i2c.h **** #define LL_I2C_SR1_PECERR                   I2C_ISR_PECERR          /*!< PEC Error in reception (SM
 131:Drivers/STM32F1xx_HAL_Driver/Inc/stm32f1xx_ll_i2c.h **** #define LL_I2C_SR1_TIMEOUT                  I2C_ISR_TIMEOUT         /*!< Timeout detection flag (SM
 132:Drivers/STM32F1xx_HAL_Driver/Inc/stm32f1xx_ll_i2c.h **** #define LL_I2C_SR1_SMALERT                  I2C_ISR_SMALERT         /*!< SMBus alert (SMBus mode)  
 133:Drivers/STM32F1xx_HAL_Driver/Inc/stm32f1xx_ll_i2c.h **** #define LL_I2C_SR2_MSL                      I2C_SR2_MSL             /*!< Master/Slave flag         
 134:Drivers/STM32F1xx_HAL_Driver/Inc/stm32f1xx_ll_i2c.h **** #define LL_I2C_SR2_BUSY                     I2C_SR2_BUSY            /*!< Bus busy flag             
 135:Drivers/STM32F1xx_HAL_Driver/Inc/stm32f1xx_ll_i2c.h **** #define LL_I2C_SR2_TRA                      I2C_SR2_TRA             /*!< Transmitter/receiver direc
 136:Drivers/STM32F1xx_HAL_Driver/Inc/stm32f1xx_ll_i2c.h **** #define LL_I2C_SR2_GENCALL                  I2C_SR2_GENCALL         /*!< General call address (Slav
 137:Drivers/STM32F1xx_HAL_Driver/Inc/stm32f1xx_ll_i2c.h **** #define LL_I2C_SR2_SMBDEFAULT               I2C_SR2_SMBDEFAULT      /*!< SMBus Device default addre
 138:Drivers/STM32F1xx_HAL_Driver/Inc/stm32f1xx_ll_i2c.h **** #define LL_I2C_SR2_SMBHOST                  I2C_SR2_SMBHOST         /*!< SMBus Host address (Slave 
 139:Drivers/STM32F1xx_HAL_Driver/Inc/stm32f1xx_ll_i2c.h **** #define LL_I2C_SR2_DUALF                    I2C_SR2_DUALF           /*!< Dual flag  (Slave mode)   
 140:Drivers/STM32F1xx_HAL_Driver/Inc/stm32f1xx_ll_i2c.h **** /**
 141:Drivers/STM32F1xx_HAL_Driver/Inc/stm32f1xx_ll_i2c.h ****   * @}
 142:Drivers/STM32F1xx_HAL_Driver/Inc/stm32f1xx_ll_i2c.h ****   */
 143:Drivers/STM32F1xx_HAL_Driver/Inc/stm32f1xx_ll_i2c.h **** 
 144:Drivers/STM32F1xx_HAL_Driver/Inc/stm32f1xx_ll_i2c.h **** /** @defgroup I2C_LL_EC_IT IT Defines
 145:Drivers/STM32F1xx_HAL_Driver/Inc/stm32f1xx_ll_i2c.h ****   * @brief    IT defines which can be used with LL_I2C_ReadReg and  LL_I2C_WriteReg functions
 146:Drivers/STM32F1xx_HAL_Driver/Inc/stm32f1xx_ll_i2c.h ****   * @{
 147:Drivers/STM32F1xx_HAL_Driver/Inc/stm32f1xx_ll_i2c.h ****   */
 148:Drivers/STM32F1xx_HAL_Driver/Inc/stm32f1xx_ll_i2c.h **** #define LL_I2C_CR2_ITEVTEN                  I2C_CR2_ITEVTEN         /*!< Events interrupts enable *
 149:Drivers/STM32F1xx_HAL_Driver/Inc/stm32f1xx_ll_i2c.h **** #define LL_I2C_CR2_ITBUFEN                  I2C_CR2_ITBUFEN         /*!< Buffer interrupts enable *
 150:Drivers/STM32F1xx_HAL_Driver/Inc/stm32f1xx_ll_i2c.h **** #define LL_I2C_CR2_ITERREN                  I2C_CR2_ITERREN         /*!< Error interrupts enable  *
 151:Drivers/STM32F1xx_HAL_Driver/Inc/stm32f1xx_ll_i2c.h **** /**
 152:Drivers/STM32F1xx_HAL_Driver/Inc/stm32f1xx_ll_i2c.h ****   * @}
 153:Drivers/STM32F1xx_HAL_Driver/Inc/stm32f1xx_ll_i2c.h ****   */
 154:Drivers/STM32F1xx_HAL_Driver/Inc/stm32f1xx_ll_i2c.h **** 
 155:Drivers/STM32F1xx_HAL_Driver/Inc/stm32f1xx_ll_i2c.h **** /** @defgroup I2C_LL_EC_OWNADDRESS1 Own Address 1 Length
 156:Drivers/STM32F1xx_HAL_Driver/Inc/stm32f1xx_ll_i2c.h ****   * @{
 157:Drivers/STM32F1xx_HAL_Driver/Inc/stm32f1xx_ll_i2c.h ****   */
 158:Drivers/STM32F1xx_HAL_Driver/Inc/stm32f1xx_ll_i2c.h **** #define LL_I2C_OWNADDRESS1_7BIT             0x00004000U                                /*!< Own add
 159:Drivers/STM32F1xx_HAL_Driver/Inc/stm32f1xx_ll_i2c.h **** #define LL_I2C_OWNADDRESS1_10BIT            (uint32_t)(I2C_OAR1_ADDMODE | 0x00004000U) /*!< Own add
 160:Drivers/STM32F1xx_HAL_Driver/Inc/stm32f1xx_ll_i2c.h **** /**
 161:Drivers/STM32F1xx_HAL_Driver/Inc/stm32f1xx_ll_i2c.h ****   * @}
 162:Drivers/STM32F1xx_HAL_Driver/Inc/stm32f1xx_ll_i2c.h ****   */
 163:Drivers/STM32F1xx_HAL_Driver/Inc/stm32f1xx_ll_i2c.h **** 
 164:Drivers/STM32F1xx_HAL_Driver/Inc/stm32f1xx_ll_i2c.h **** /** @defgroup I2C_LL_EC_DUTYCYCLE Fast Mode Duty Cycle
 165:Drivers/STM32F1xx_HAL_Driver/Inc/stm32f1xx_ll_i2c.h ****   * @{
 166:Drivers/STM32F1xx_HAL_Driver/Inc/stm32f1xx_ll_i2c.h ****   */
ARM GAS  /tmp/ccSSjYDs.s 			page 22


 167:Drivers/STM32F1xx_HAL_Driver/Inc/stm32f1xx_ll_i2c.h **** #define LL_I2C_DUTYCYCLE_2                  0x00000000U             /*!< I2C fast mode Tlow/Thigh =
 168:Drivers/STM32F1xx_HAL_Driver/Inc/stm32f1xx_ll_i2c.h **** #define LL_I2C_DUTYCYCLE_16_9               I2C_CCR_DUTY            /*!< I2C fast mode Tlow/Thigh =
 169:Drivers/STM32F1xx_HAL_Driver/Inc/stm32f1xx_ll_i2c.h **** /**
 170:Drivers/STM32F1xx_HAL_Driver/Inc/stm32f1xx_ll_i2c.h ****   * @}
 171:Drivers/STM32F1xx_HAL_Driver/Inc/stm32f1xx_ll_i2c.h ****   */
 172:Drivers/STM32F1xx_HAL_Driver/Inc/stm32f1xx_ll_i2c.h **** 
 173:Drivers/STM32F1xx_HAL_Driver/Inc/stm32f1xx_ll_i2c.h **** /** @defgroup I2C_LL_EC_CLOCK_SPEED_MODE Master Clock Speed Mode
 174:Drivers/STM32F1xx_HAL_Driver/Inc/stm32f1xx_ll_i2c.h ****   * @{
 175:Drivers/STM32F1xx_HAL_Driver/Inc/stm32f1xx_ll_i2c.h ****   */
 176:Drivers/STM32F1xx_HAL_Driver/Inc/stm32f1xx_ll_i2c.h **** #define LL_I2C_CLOCK_SPEED_STANDARD_MODE    0x00000000U             /*!< Master clock speed range i
 177:Drivers/STM32F1xx_HAL_Driver/Inc/stm32f1xx_ll_i2c.h **** #define LL_I2C_CLOCK_SPEED_FAST_MODE        I2C_CCR_FS              /*!< Master clock speed range i
 178:Drivers/STM32F1xx_HAL_Driver/Inc/stm32f1xx_ll_i2c.h **** /**
 179:Drivers/STM32F1xx_HAL_Driver/Inc/stm32f1xx_ll_i2c.h ****   * @}
 180:Drivers/STM32F1xx_HAL_Driver/Inc/stm32f1xx_ll_i2c.h ****   */
 181:Drivers/STM32F1xx_HAL_Driver/Inc/stm32f1xx_ll_i2c.h **** 
 182:Drivers/STM32F1xx_HAL_Driver/Inc/stm32f1xx_ll_i2c.h **** /** @defgroup I2C_LL_EC_PERIPHERAL_MODE Peripheral Mode
 183:Drivers/STM32F1xx_HAL_Driver/Inc/stm32f1xx_ll_i2c.h ****   * @{
 184:Drivers/STM32F1xx_HAL_Driver/Inc/stm32f1xx_ll_i2c.h ****   */
 185:Drivers/STM32F1xx_HAL_Driver/Inc/stm32f1xx_ll_i2c.h **** #define LL_I2C_MODE_I2C                     0x00000000U                                            
 186:Drivers/STM32F1xx_HAL_Driver/Inc/stm32f1xx_ll_i2c.h **** #define LL_I2C_MODE_SMBUS_HOST              (uint32_t)(I2C_CR1_SMBUS | I2C_CR1_SMBTYPE | I2C_CR1_EN
 187:Drivers/STM32F1xx_HAL_Driver/Inc/stm32f1xx_ll_i2c.h **** #define LL_I2C_MODE_SMBUS_DEVICE            I2C_CR1_SMBUS                                          
 188:Drivers/STM32F1xx_HAL_Driver/Inc/stm32f1xx_ll_i2c.h **** #define LL_I2C_MODE_SMBUS_DEVICE_ARP        (uint32_t)(I2C_CR1_SMBUS | I2C_CR1_ENARP)              
 189:Drivers/STM32F1xx_HAL_Driver/Inc/stm32f1xx_ll_i2c.h **** /**
 190:Drivers/STM32F1xx_HAL_Driver/Inc/stm32f1xx_ll_i2c.h ****   * @}
 191:Drivers/STM32F1xx_HAL_Driver/Inc/stm32f1xx_ll_i2c.h ****   */
 192:Drivers/STM32F1xx_HAL_Driver/Inc/stm32f1xx_ll_i2c.h **** 
 193:Drivers/STM32F1xx_HAL_Driver/Inc/stm32f1xx_ll_i2c.h **** /** @defgroup I2C_LL_EC_I2C_ACKNOWLEDGE Acknowledge Generation
 194:Drivers/STM32F1xx_HAL_Driver/Inc/stm32f1xx_ll_i2c.h ****   * @{
 195:Drivers/STM32F1xx_HAL_Driver/Inc/stm32f1xx_ll_i2c.h ****   */
 196:Drivers/STM32F1xx_HAL_Driver/Inc/stm32f1xx_ll_i2c.h **** #define LL_I2C_ACK                          I2C_CR1_ACK             /*!< ACK is sent after current 
 197:Drivers/STM32F1xx_HAL_Driver/Inc/stm32f1xx_ll_i2c.h **** #define LL_I2C_NACK                         0x00000000U             /*!< NACK is sent after current
 198:Drivers/STM32F1xx_HAL_Driver/Inc/stm32f1xx_ll_i2c.h **** /**
 199:Drivers/STM32F1xx_HAL_Driver/Inc/stm32f1xx_ll_i2c.h ****   * @}
 200:Drivers/STM32F1xx_HAL_Driver/Inc/stm32f1xx_ll_i2c.h ****   */
 201:Drivers/STM32F1xx_HAL_Driver/Inc/stm32f1xx_ll_i2c.h **** 
 202:Drivers/STM32F1xx_HAL_Driver/Inc/stm32f1xx_ll_i2c.h **** /** @defgroup I2C_LL_EC_DIRECTION Read Write Direction
 203:Drivers/STM32F1xx_HAL_Driver/Inc/stm32f1xx_ll_i2c.h ****   * @{
 204:Drivers/STM32F1xx_HAL_Driver/Inc/stm32f1xx_ll_i2c.h ****   */
 205:Drivers/STM32F1xx_HAL_Driver/Inc/stm32f1xx_ll_i2c.h **** #define LL_I2C_DIRECTION_WRITE              I2C_SR2_TRA             /*!< Bus is in write transfer *
 206:Drivers/STM32F1xx_HAL_Driver/Inc/stm32f1xx_ll_i2c.h **** #define LL_I2C_DIRECTION_READ               0x00000000U             /*!< Bus is in read transfer  *
 207:Drivers/STM32F1xx_HAL_Driver/Inc/stm32f1xx_ll_i2c.h **** /**
 208:Drivers/STM32F1xx_HAL_Driver/Inc/stm32f1xx_ll_i2c.h ****   * @}
 209:Drivers/STM32F1xx_HAL_Driver/Inc/stm32f1xx_ll_i2c.h ****   */
 210:Drivers/STM32F1xx_HAL_Driver/Inc/stm32f1xx_ll_i2c.h **** 
 211:Drivers/STM32F1xx_HAL_Driver/Inc/stm32f1xx_ll_i2c.h **** /**
 212:Drivers/STM32F1xx_HAL_Driver/Inc/stm32f1xx_ll_i2c.h ****   * @}
 213:Drivers/STM32F1xx_HAL_Driver/Inc/stm32f1xx_ll_i2c.h ****   */
 214:Drivers/STM32F1xx_HAL_Driver/Inc/stm32f1xx_ll_i2c.h **** 
 215:Drivers/STM32F1xx_HAL_Driver/Inc/stm32f1xx_ll_i2c.h **** /* Exported macro ------------------------------------------------------------*/
 216:Drivers/STM32F1xx_HAL_Driver/Inc/stm32f1xx_ll_i2c.h **** /** @defgroup I2C_LL_Exported_Macros I2C Exported Macros
 217:Drivers/STM32F1xx_HAL_Driver/Inc/stm32f1xx_ll_i2c.h ****   * @{
 218:Drivers/STM32F1xx_HAL_Driver/Inc/stm32f1xx_ll_i2c.h ****   */
 219:Drivers/STM32F1xx_HAL_Driver/Inc/stm32f1xx_ll_i2c.h **** 
 220:Drivers/STM32F1xx_HAL_Driver/Inc/stm32f1xx_ll_i2c.h **** /** @defgroup I2C_LL_EM_WRITE_READ Common Write and read registers Macros
 221:Drivers/STM32F1xx_HAL_Driver/Inc/stm32f1xx_ll_i2c.h ****   * @{
 222:Drivers/STM32F1xx_HAL_Driver/Inc/stm32f1xx_ll_i2c.h ****   */
 223:Drivers/STM32F1xx_HAL_Driver/Inc/stm32f1xx_ll_i2c.h **** 
ARM GAS  /tmp/ccSSjYDs.s 			page 23


 224:Drivers/STM32F1xx_HAL_Driver/Inc/stm32f1xx_ll_i2c.h **** /**
 225:Drivers/STM32F1xx_HAL_Driver/Inc/stm32f1xx_ll_i2c.h ****   * @brief  Write a value in I2C register
 226:Drivers/STM32F1xx_HAL_Driver/Inc/stm32f1xx_ll_i2c.h ****   * @param  __INSTANCE__ I2C Instance
 227:Drivers/STM32F1xx_HAL_Driver/Inc/stm32f1xx_ll_i2c.h ****   * @param  __REG__ Register to be written
 228:Drivers/STM32F1xx_HAL_Driver/Inc/stm32f1xx_ll_i2c.h ****   * @param  __VALUE__ Value to be written in the register
 229:Drivers/STM32F1xx_HAL_Driver/Inc/stm32f1xx_ll_i2c.h ****   * @retval None
 230:Drivers/STM32F1xx_HAL_Driver/Inc/stm32f1xx_ll_i2c.h ****   */
 231:Drivers/STM32F1xx_HAL_Driver/Inc/stm32f1xx_ll_i2c.h **** #define LL_I2C_WriteReg(__INSTANCE__, __REG__, __VALUE__) WRITE_REG(__INSTANCE__->__REG__, (__VALUE
 232:Drivers/STM32F1xx_HAL_Driver/Inc/stm32f1xx_ll_i2c.h **** 
 233:Drivers/STM32F1xx_HAL_Driver/Inc/stm32f1xx_ll_i2c.h **** /**
 234:Drivers/STM32F1xx_HAL_Driver/Inc/stm32f1xx_ll_i2c.h ****   * @brief  Read a value in I2C register
 235:Drivers/STM32F1xx_HAL_Driver/Inc/stm32f1xx_ll_i2c.h ****   * @param  __INSTANCE__ I2C Instance
 236:Drivers/STM32F1xx_HAL_Driver/Inc/stm32f1xx_ll_i2c.h ****   * @param  __REG__ Register to be read
 237:Drivers/STM32F1xx_HAL_Driver/Inc/stm32f1xx_ll_i2c.h ****   * @retval Register value
 238:Drivers/STM32F1xx_HAL_Driver/Inc/stm32f1xx_ll_i2c.h ****   */
 239:Drivers/STM32F1xx_HAL_Driver/Inc/stm32f1xx_ll_i2c.h **** #define LL_I2C_ReadReg(__INSTANCE__, __REG__) READ_REG(__INSTANCE__->__REG__)
 240:Drivers/STM32F1xx_HAL_Driver/Inc/stm32f1xx_ll_i2c.h **** /**
 241:Drivers/STM32F1xx_HAL_Driver/Inc/stm32f1xx_ll_i2c.h ****   * @}
 242:Drivers/STM32F1xx_HAL_Driver/Inc/stm32f1xx_ll_i2c.h ****   */
 243:Drivers/STM32F1xx_HAL_Driver/Inc/stm32f1xx_ll_i2c.h **** 
 244:Drivers/STM32F1xx_HAL_Driver/Inc/stm32f1xx_ll_i2c.h **** /** @defgroup I2C_LL_EM_Exported_Macros_Helper Exported_Macros_Helper
 245:Drivers/STM32F1xx_HAL_Driver/Inc/stm32f1xx_ll_i2c.h ****   * @{
 246:Drivers/STM32F1xx_HAL_Driver/Inc/stm32f1xx_ll_i2c.h ****   */
 247:Drivers/STM32F1xx_HAL_Driver/Inc/stm32f1xx_ll_i2c.h **** 
 248:Drivers/STM32F1xx_HAL_Driver/Inc/stm32f1xx_ll_i2c.h **** /**
 249:Drivers/STM32F1xx_HAL_Driver/Inc/stm32f1xx_ll_i2c.h ****   * @brief  Convert Peripheral Clock Frequency in Mhz.
 250:Drivers/STM32F1xx_HAL_Driver/Inc/stm32f1xx_ll_i2c.h ****   * @param  __PCLK__ This parameter must be a value of peripheral clock (in Hz).
 251:Drivers/STM32F1xx_HAL_Driver/Inc/stm32f1xx_ll_i2c.h ****   * @retval Value of peripheral clock (in Mhz)
 252:Drivers/STM32F1xx_HAL_Driver/Inc/stm32f1xx_ll_i2c.h ****   */
 253:Drivers/STM32F1xx_HAL_Driver/Inc/stm32f1xx_ll_i2c.h **** #define __LL_I2C_FREQ_HZ_TO_MHZ(__PCLK__)                               (uint32_t)((__PCLK__)/10000
 254:Drivers/STM32F1xx_HAL_Driver/Inc/stm32f1xx_ll_i2c.h **** 
 255:Drivers/STM32F1xx_HAL_Driver/Inc/stm32f1xx_ll_i2c.h **** /**
 256:Drivers/STM32F1xx_HAL_Driver/Inc/stm32f1xx_ll_i2c.h ****   * @brief  Convert Peripheral Clock Frequency in Hz.
 257:Drivers/STM32F1xx_HAL_Driver/Inc/stm32f1xx_ll_i2c.h ****   * @param  __PCLK__ This parameter must be a value of peripheral clock (in Mhz).
 258:Drivers/STM32F1xx_HAL_Driver/Inc/stm32f1xx_ll_i2c.h ****   * @retval Value of peripheral clock (in Hz)
 259:Drivers/STM32F1xx_HAL_Driver/Inc/stm32f1xx_ll_i2c.h ****   */
 260:Drivers/STM32F1xx_HAL_Driver/Inc/stm32f1xx_ll_i2c.h **** #define __LL_I2C_FREQ_MHZ_TO_HZ(__PCLK__)                               (uint32_t)((__PCLK__)*10000
 261:Drivers/STM32F1xx_HAL_Driver/Inc/stm32f1xx_ll_i2c.h **** 
 262:Drivers/STM32F1xx_HAL_Driver/Inc/stm32f1xx_ll_i2c.h **** /**
 263:Drivers/STM32F1xx_HAL_Driver/Inc/stm32f1xx_ll_i2c.h ****   * @brief  Compute I2C Clock rising time.
 264:Drivers/STM32F1xx_HAL_Driver/Inc/stm32f1xx_ll_i2c.h ****   * @param  __FREQRANGE__ This parameter must be a value of peripheral clock (in Mhz).
 265:Drivers/STM32F1xx_HAL_Driver/Inc/stm32f1xx_ll_i2c.h ****   * @param  __SPEED__ This parameter must be a value lower than 400kHz (in Hz).
 266:Drivers/STM32F1xx_HAL_Driver/Inc/stm32f1xx_ll_i2c.h ****   * @retval Value between Min_Data=0x02 and Max_Data=0x3F
 267:Drivers/STM32F1xx_HAL_Driver/Inc/stm32f1xx_ll_i2c.h ****   */
 268:Drivers/STM32F1xx_HAL_Driver/Inc/stm32f1xx_ll_i2c.h **** #define __LL_I2C_RISE_TIME(__FREQRANGE__, __SPEED__)                    (uint32_t)(((__SPEED__) <= 
 269:Drivers/STM32F1xx_HAL_Driver/Inc/stm32f1xx_ll_i2c.h **** 
 270:Drivers/STM32F1xx_HAL_Driver/Inc/stm32f1xx_ll_i2c.h **** /**
 271:Drivers/STM32F1xx_HAL_Driver/Inc/stm32f1xx_ll_i2c.h ****   * @brief  Compute Speed clock range to a Clock Control Register (I2C_CCR_CCR) value.
 272:Drivers/STM32F1xx_HAL_Driver/Inc/stm32f1xx_ll_i2c.h ****   * @param  __PCLK__ This parameter must be a value of peripheral clock (in Hz).
 273:Drivers/STM32F1xx_HAL_Driver/Inc/stm32f1xx_ll_i2c.h ****   * @param  __SPEED__ This parameter must be a value lower than 400kHz (in Hz).
 274:Drivers/STM32F1xx_HAL_Driver/Inc/stm32f1xx_ll_i2c.h ****   * @param  __DUTYCYCLE__ This parameter can be one of the following values:
 275:Drivers/STM32F1xx_HAL_Driver/Inc/stm32f1xx_ll_i2c.h ****   *         @arg @ref LL_I2C_DUTYCYCLE_2
 276:Drivers/STM32F1xx_HAL_Driver/Inc/stm32f1xx_ll_i2c.h ****   *         @arg @ref LL_I2C_DUTYCYCLE_16_9
 277:Drivers/STM32F1xx_HAL_Driver/Inc/stm32f1xx_ll_i2c.h ****   * @retval Value between Min_Data=0x004 and Max_Data=0xFFF, except in FAST DUTY mode where Min_Dat
 278:Drivers/STM32F1xx_HAL_Driver/Inc/stm32f1xx_ll_i2c.h ****   */
 279:Drivers/STM32F1xx_HAL_Driver/Inc/stm32f1xx_ll_i2c.h **** #define __LL_I2C_SPEED_TO_CCR(__PCLK__, __SPEED__, __DUTYCYCLE__)       (uint32_t)(((__SPEED__) <= 
 280:Drivers/STM32F1xx_HAL_Driver/Inc/stm32f1xx_ll_i2c.h ****                                                                                   (__LL_I2C_SPEED_S
ARM GAS  /tmp/ccSSjYDs.s 			page 24


 281:Drivers/STM32F1xx_HAL_Driver/Inc/stm32f1xx_ll_i2c.h ****                                                                                   (__LL_I2C_SPEED_F
 282:Drivers/STM32F1xx_HAL_Driver/Inc/stm32f1xx_ll_i2c.h **** 
 283:Drivers/STM32F1xx_HAL_Driver/Inc/stm32f1xx_ll_i2c.h **** /**
 284:Drivers/STM32F1xx_HAL_Driver/Inc/stm32f1xx_ll_i2c.h ****   * @brief  Compute Speed Standard clock range to a Clock Control Register (I2C_CCR_CCR) value.
 285:Drivers/STM32F1xx_HAL_Driver/Inc/stm32f1xx_ll_i2c.h ****   * @param  __PCLK__ This parameter must be a value of peripheral clock (in Hz).
 286:Drivers/STM32F1xx_HAL_Driver/Inc/stm32f1xx_ll_i2c.h ****   * @param  __SPEED__ This parameter must be a value lower than 100kHz (in Hz).
 287:Drivers/STM32F1xx_HAL_Driver/Inc/stm32f1xx_ll_i2c.h ****   * @retval Value between Min_Data=0x004 and Max_Data=0xFFF.
 288:Drivers/STM32F1xx_HAL_Driver/Inc/stm32f1xx_ll_i2c.h ****   */
 289:Drivers/STM32F1xx_HAL_Driver/Inc/stm32f1xx_ll_i2c.h **** #define __LL_I2C_SPEED_STANDARD_TO_CCR(__PCLK__, __SPEED__)             (uint32_t)(((((__PCLK__)/((
 290:Drivers/STM32F1xx_HAL_Driver/Inc/stm32f1xx_ll_i2c.h **** 
 291:Drivers/STM32F1xx_HAL_Driver/Inc/stm32f1xx_ll_i2c.h **** /**
 292:Drivers/STM32F1xx_HAL_Driver/Inc/stm32f1xx_ll_i2c.h ****   * @brief  Compute Speed Fast clock range to a Clock Control Register (I2C_CCR_CCR) value.
 293:Drivers/STM32F1xx_HAL_Driver/Inc/stm32f1xx_ll_i2c.h ****   * @param  __PCLK__ This parameter must be a value of peripheral clock (in Hz).
 294:Drivers/STM32F1xx_HAL_Driver/Inc/stm32f1xx_ll_i2c.h ****   * @param  __SPEED__ This parameter must be a value between Min_Data=100Khz and Max_Data=400Khz (i
 295:Drivers/STM32F1xx_HAL_Driver/Inc/stm32f1xx_ll_i2c.h ****   * @param  __DUTYCYCLE__ This parameter can be one of the following values:
 296:Drivers/STM32F1xx_HAL_Driver/Inc/stm32f1xx_ll_i2c.h ****   *         @arg @ref LL_I2C_DUTYCYCLE_2
 297:Drivers/STM32F1xx_HAL_Driver/Inc/stm32f1xx_ll_i2c.h ****   *         @arg @ref LL_I2C_DUTYCYCLE_16_9
 298:Drivers/STM32F1xx_HAL_Driver/Inc/stm32f1xx_ll_i2c.h ****   * @retval Value between Min_Data=0x001 and Max_Data=0xFFF
 299:Drivers/STM32F1xx_HAL_Driver/Inc/stm32f1xx_ll_i2c.h ****   */
 300:Drivers/STM32F1xx_HAL_Driver/Inc/stm32f1xx_ll_i2c.h **** #define __LL_I2C_SPEED_FAST_TO_CCR(__PCLK__, __SPEED__, __DUTYCYCLE__)  (uint32_t)(((__DUTYCYCLE__)
 301:Drivers/STM32F1xx_HAL_Driver/Inc/stm32f1xx_ll_i2c.h ****                                                                             (((((__PCLK__) / ((__SP
 302:Drivers/STM32F1xx_HAL_Driver/Inc/stm32f1xx_ll_i2c.h ****                                                                             (((((__PCLK__) / ((__SP
 303:Drivers/STM32F1xx_HAL_Driver/Inc/stm32f1xx_ll_i2c.h **** 
 304:Drivers/STM32F1xx_HAL_Driver/Inc/stm32f1xx_ll_i2c.h **** /**
 305:Drivers/STM32F1xx_HAL_Driver/Inc/stm32f1xx_ll_i2c.h ****   * @brief  Get the Least significant bits of a 10-Bits address.
 306:Drivers/STM32F1xx_HAL_Driver/Inc/stm32f1xx_ll_i2c.h ****   * @param  __ADDRESS__ This parameter must be a value of a 10-Bits slave address.
 307:Drivers/STM32F1xx_HAL_Driver/Inc/stm32f1xx_ll_i2c.h ****   * @retval Value between Min_Data=0x00 and Max_Data=0xFF
 308:Drivers/STM32F1xx_HAL_Driver/Inc/stm32f1xx_ll_i2c.h ****   */
 309:Drivers/STM32F1xx_HAL_Driver/Inc/stm32f1xx_ll_i2c.h **** #define __LL_I2C_10BIT_ADDRESS(__ADDRESS__)                             ((uint8_t)((uint16_t)((__AD
 310:Drivers/STM32F1xx_HAL_Driver/Inc/stm32f1xx_ll_i2c.h **** 
 311:Drivers/STM32F1xx_HAL_Driver/Inc/stm32f1xx_ll_i2c.h **** /**
 312:Drivers/STM32F1xx_HAL_Driver/Inc/stm32f1xx_ll_i2c.h ****   * @brief  Convert a 10-Bits address to a 10-Bits header with Write direction.
 313:Drivers/STM32F1xx_HAL_Driver/Inc/stm32f1xx_ll_i2c.h ****   * @param  __ADDRESS__ This parameter must be a value of a 10-Bits slave address.
 314:Drivers/STM32F1xx_HAL_Driver/Inc/stm32f1xx_ll_i2c.h ****   * @retval Value between Min_Data=0xF0 and Max_Data=0xF6
 315:Drivers/STM32F1xx_HAL_Driver/Inc/stm32f1xx_ll_i2c.h ****   */
 316:Drivers/STM32F1xx_HAL_Driver/Inc/stm32f1xx_ll_i2c.h **** #define __LL_I2C_10BIT_HEADER_WRITE(__ADDRESS__)                        ((uint8_t)((uint16_t)((uint
 317:Drivers/STM32F1xx_HAL_Driver/Inc/stm32f1xx_ll_i2c.h **** 
 318:Drivers/STM32F1xx_HAL_Driver/Inc/stm32f1xx_ll_i2c.h **** /**
 319:Drivers/STM32F1xx_HAL_Driver/Inc/stm32f1xx_ll_i2c.h ****   * @brief  Convert a 10-Bits address to a 10-Bits header with Read direction.
 320:Drivers/STM32F1xx_HAL_Driver/Inc/stm32f1xx_ll_i2c.h ****   * @param  __ADDRESS__ This parameter must be a value of a 10-Bits slave address.
 321:Drivers/STM32F1xx_HAL_Driver/Inc/stm32f1xx_ll_i2c.h ****   * @retval Value between Min_Data=0xF1 and Max_Data=0xF7
 322:Drivers/STM32F1xx_HAL_Driver/Inc/stm32f1xx_ll_i2c.h ****   */
 323:Drivers/STM32F1xx_HAL_Driver/Inc/stm32f1xx_ll_i2c.h **** #define __LL_I2C_10BIT_HEADER_READ(__ADDRESS__)                         ((uint8_t)((uint16_t)((uint
 324:Drivers/STM32F1xx_HAL_Driver/Inc/stm32f1xx_ll_i2c.h **** 
 325:Drivers/STM32F1xx_HAL_Driver/Inc/stm32f1xx_ll_i2c.h **** /**
 326:Drivers/STM32F1xx_HAL_Driver/Inc/stm32f1xx_ll_i2c.h ****   * @}
 327:Drivers/STM32F1xx_HAL_Driver/Inc/stm32f1xx_ll_i2c.h ****   */
 328:Drivers/STM32F1xx_HAL_Driver/Inc/stm32f1xx_ll_i2c.h **** 
 329:Drivers/STM32F1xx_HAL_Driver/Inc/stm32f1xx_ll_i2c.h **** /**
 330:Drivers/STM32F1xx_HAL_Driver/Inc/stm32f1xx_ll_i2c.h ****   * @}
 331:Drivers/STM32F1xx_HAL_Driver/Inc/stm32f1xx_ll_i2c.h ****   */
 332:Drivers/STM32F1xx_HAL_Driver/Inc/stm32f1xx_ll_i2c.h **** 
 333:Drivers/STM32F1xx_HAL_Driver/Inc/stm32f1xx_ll_i2c.h **** /* Exported functions --------------------------------------------------------*/
 334:Drivers/STM32F1xx_HAL_Driver/Inc/stm32f1xx_ll_i2c.h **** 
 335:Drivers/STM32F1xx_HAL_Driver/Inc/stm32f1xx_ll_i2c.h **** /** @defgroup I2C_LL_Exported_Functions I2C Exported Functions
 336:Drivers/STM32F1xx_HAL_Driver/Inc/stm32f1xx_ll_i2c.h ****   * @{
 337:Drivers/STM32F1xx_HAL_Driver/Inc/stm32f1xx_ll_i2c.h ****   */
ARM GAS  /tmp/ccSSjYDs.s 			page 25


 338:Drivers/STM32F1xx_HAL_Driver/Inc/stm32f1xx_ll_i2c.h **** 
 339:Drivers/STM32F1xx_HAL_Driver/Inc/stm32f1xx_ll_i2c.h **** /** @defgroup I2C_LL_EF_Configuration Configuration
 340:Drivers/STM32F1xx_HAL_Driver/Inc/stm32f1xx_ll_i2c.h ****   * @{
 341:Drivers/STM32F1xx_HAL_Driver/Inc/stm32f1xx_ll_i2c.h ****   */
 342:Drivers/STM32F1xx_HAL_Driver/Inc/stm32f1xx_ll_i2c.h **** 
 343:Drivers/STM32F1xx_HAL_Driver/Inc/stm32f1xx_ll_i2c.h **** /**
 344:Drivers/STM32F1xx_HAL_Driver/Inc/stm32f1xx_ll_i2c.h ****   * @brief  Enable I2C peripheral (PE = 1).
 345:Drivers/STM32F1xx_HAL_Driver/Inc/stm32f1xx_ll_i2c.h ****   * @rmtoll CR1          PE            LL_I2C_Enable
 346:Drivers/STM32F1xx_HAL_Driver/Inc/stm32f1xx_ll_i2c.h ****   * @param  I2Cx I2C Instance.
 347:Drivers/STM32F1xx_HAL_Driver/Inc/stm32f1xx_ll_i2c.h ****   * @retval None
 348:Drivers/STM32F1xx_HAL_Driver/Inc/stm32f1xx_ll_i2c.h ****   */
 349:Drivers/STM32F1xx_HAL_Driver/Inc/stm32f1xx_ll_i2c.h **** __STATIC_INLINE void LL_I2C_Enable(I2C_TypeDef *I2Cx)
 350:Drivers/STM32F1xx_HAL_Driver/Inc/stm32f1xx_ll_i2c.h **** {
 351:Drivers/STM32F1xx_HAL_Driver/Inc/stm32f1xx_ll_i2c.h ****   SET_BIT(I2Cx->CR1, I2C_CR1_PE);
 352:Drivers/STM32F1xx_HAL_Driver/Inc/stm32f1xx_ll_i2c.h **** }
 353:Drivers/STM32F1xx_HAL_Driver/Inc/stm32f1xx_ll_i2c.h **** 
 354:Drivers/STM32F1xx_HAL_Driver/Inc/stm32f1xx_ll_i2c.h **** /**
 355:Drivers/STM32F1xx_HAL_Driver/Inc/stm32f1xx_ll_i2c.h ****   * @brief  Disable I2C peripheral (PE = 0).
 356:Drivers/STM32F1xx_HAL_Driver/Inc/stm32f1xx_ll_i2c.h ****   * @rmtoll CR1          PE            LL_I2C_Disable
 357:Drivers/STM32F1xx_HAL_Driver/Inc/stm32f1xx_ll_i2c.h ****   * @param  I2Cx I2C Instance.
 358:Drivers/STM32F1xx_HAL_Driver/Inc/stm32f1xx_ll_i2c.h ****   * @retval None
 359:Drivers/STM32F1xx_HAL_Driver/Inc/stm32f1xx_ll_i2c.h ****   */
 360:Drivers/STM32F1xx_HAL_Driver/Inc/stm32f1xx_ll_i2c.h **** __STATIC_INLINE void LL_I2C_Disable(I2C_TypeDef *I2Cx)
 174              		.loc 3 360 22 view .LVU40
 175              	.LBB45:
 361:Drivers/STM32F1xx_HAL_Driver/Inc/stm32f1xx_ll_i2c.h **** {
 362:Drivers/STM32F1xx_HAL_Driver/Inc/stm32f1xx_ll_i2c.h ****   CLEAR_BIT(I2Cx->CR1, I2C_CR1_PE);
 176              		.loc 3 362 3 view .LVU41
 177 0008 0368     		ldr	r3, [r0]
 178 000a 23F00103 		bic	r3, r3, #1
 179 000e 0360     		str	r3, [r0]
 180              	.LVL10:
 181              		.loc 3 362 3 is_stmt 0 view .LVU42
 182              	.LBE45:
 183              	.LBE44:
 147:Drivers/STM32F1xx_HAL_Driver/Src/stm32f1xx_ll_i2c.c **** 
 148:Drivers/STM32F1xx_HAL_Driver/Src/stm32f1xx_ll_i2c.c ****   /* Retrieve Clock frequencies */
 149:Drivers/STM32F1xx_HAL_Driver/Src/stm32f1xx_ll_i2c.c ****   LL_RCC_GetSystemClocksFreq(&rcc_clocks);
 184              		.loc 1 149 3 is_stmt 1 view .LVU43
 185 0010 6846     		mov	r0, sp
 186              	.LVL11:
 187              		.loc 1 149 3 is_stmt 0 view .LVU44
 188 0012 FFF7FEFF 		bl	LL_RCC_GetSystemClocksFreq
 189              	.LVL12:
 150:Drivers/STM32F1xx_HAL_Driver/Src/stm32f1xx_ll_i2c.c **** 
 151:Drivers/STM32F1xx_HAL_Driver/Src/stm32f1xx_ll_i2c.c ****   /*---------------------------- I2Cx SCL Clock Speed Configuration ------------
 152:Drivers/STM32F1xx_HAL_Driver/Src/stm32f1xx_ll_i2c.c ****    * Configure the SCL speed :
 153:Drivers/STM32F1xx_HAL_Driver/Src/stm32f1xx_ll_i2c.c ****    * - ClockSpeed: I2C_CR2_FREQ[5:0], I2C_TRISE_TRISE[5:0], I2C_CCR_FS,
 154:Drivers/STM32F1xx_HAL_Driver/Src/stm32f1xx_ll_i2c.c ****    *           and I2C_CCR_CCR[11:0] bits
 155:Drivers/STM32F1xx_HAL_Driver/Src/stm32f1xx_ll_i2c.c ****    * - DutyCycle: I2C_CCR_DUTY[7:0] bits
 156:Drivers/STM32F1xx_HAL_Driver/Src/stm32f1xx_ll_i2c.c ****    */
 157:Drivers/STM32F1xx_HAL_Driver/Src/stm32f1xx_ll_i2c.c ****   LL_I2C_ConfigSpeed(I2Cx, rcc_clocks.PCLK1_Frequency, I2C_InitStruct->ClockSpeed, I2C_InitStruct->
 190              		.loc 1 157 3 is_stmt 1 view .LVU45
 191 0016 029A     		ldr	r2, [sp, #8]
 192 0018 6B68     		ldr	r3, [r5, #4]
 193 001a AE68     		ldr	r6, [r5, #8]
 194              	.LVL13:
ARM GAS  /tmp/ccSSjYDs.s 			page 26


 195              	.LBB46:
 196              	.LBI46:
 363:Drivers/STM32F1xx_HAL_Driver/Inc/stm32f1xx_ll_i2c.h **** }
 364:Drivers/STM32F1xx_HAL_Driver/Inc/stm32f1xx_ll_i2c.h **** 
 365:Drivers/STM32F1xx_HAL_Driver/Inc/stm32f1xx_ll_i2c.h **** /**
 366:Drivers/STM32F1xx_HAL_Driver/Inc/stm32f1xx_ll_i2c.h ****   * @brief  Check if the I2C peripheral is enabled or disabled.
 367:Drivers/STM32F1xx_HAL_Driver/Inc/stm32f1xx_ll_i2c.h ****   * @rmtoll CR1          PE            LL_I2C_IsEnabled
 368:Drivers/STM32F1xx_HAL_Driver/Inc/stm32f1xx_ll_i2c.h ****   * @param  I2Cx I2C Instance.
 369:Drivers/STM32F1xx_HAL_Driver/Inc/stm32f1xx_ll_i2c.h ****   * @retval State of bit (1 or 0).
 370:Drivers/STM32F1xx_HAL_Driver/Inc/stm32f1xx_ll_i2c.h ****   */
 371:Drivers/STM32F1xx_HAL_Driver/Inc/stm32f1xx_ll_i2c.h **** __STATIC_INLINE uint32_t LL_I2C_IsEnabled(I2C_TypeDef *I2Cx)
 372:Drivers/STM32F1xx_HAL_Driver/Inc/stm32f1xx_ll_i2c.h **** {
 373:Drivers/STM32F1xx_HAL_Driver/Inc/stm32f1xx_ll_i2c.h ****   return (READ_BIT(I2Cx->CR1, I2C_CR1_PE) == (I2C_CR1_PE));
 374:Drivers/STM32F1xx_HAL_Driver/Inc/stm32f1xx_ll_i2c.h **** }
 375:Drivers/STM32F1xx_HAL_Driver/Inc/stm32f1xx_ll_i2c.h **** 
 376:Drivers/STM32F1xx_HAL_Driver/Inc/stm32f1xx_ll_i2c.h **** 
 377:Drivers/STM32F1xx_HAL_Driver/Inc/stm32f1xx_ll_i2c.h **** /**
 378:Drivers/STM32F1xx_HAL_Driver/Inc/stm32f1xx_ll_i2c.h ****   * @brief  Enable DMA transmission requests.
 379:Drivers/STM32F1xx_HAL_Driver/Inc/stm32f1xx_ll_i2c.h ****   * @rmtoll CR2          DMAEN         LL_I2C_EnableDMAReq_TX
 380:Drivers/STM32F1xx_HAL_Driver/Inc/stm32f1xx_ll_i2c.h ****   * @param  I2Cx I2C Instance.
 381:Drivers/STM32F1xx_HAL_Driver/Inc/stm32f1xx_ll_i2c.h ****   * @retval None
 382:Drivers/STM32F1xx_HAL_Driver/Inc/stm32f1xx_ll_i2c.h ****   */
 383:Drivers/STM32F1xx_HAL_Driver/Inc/stm32f1xx_ll_i2c.h **** __STATIC_INLINE void LL_I2C_EnableDMAReq_TX(I2C_TypeDef *I2Cx)
 384:Drivers/STM32F1xx_HAL_Driver/Inc/stm32f1xx_ll_i2c.h **** {
 385:Drivers/STM32F1xx_HAL_Driver/Inc/stm32f1xx_ll_i2c.h ****   SET_BIT(I2Cx->CR2, I2C_CR2_DMAEN);
 386:Drivers/STM32F1xx_HAL_Driver/Inc/stm32f1xx_ll_i2c.h **** }
 387:Drivers/STM32F1xx_HAL_Driver/Inc/stm32f1xx_ll_i2c.h **** 
 388:Drivers/STM32F1xx_HAL_Driver/Inc/stm32f1xx_ll_i2c.h **** /**
 389:Drivers/STM32F1xx_HAL_Driver/Inc/stm32f1xx_ll_i2c.h ****   * @brief  Disable DMA transmission requests.
 390:Drivers/STM32F1xx_HAL_Driver/Inc/stm32f1xx_ll_i2c.h ****   * @rmtoll CR2          DMAEN         LL_I2C_DisableDMAReq_TX
 391:Drivers/STM32F1xx_HAL_Driver/Inc/stm32f1xx_ll_i2c.h ****   * @param  I2Cx I2C Instance.
 392:Drivers/STM32F1xx_HAL_Driver/Inc/stm32f1xx_ll_i2c.h ****   * @retval None
 393:Drivers/STM32F1xx_HAL_Driver/Inc/stm32f1xx_ll_i2c.h ****   */
 394:Drivers/STM32F1xx_HAL_Driver/Inc/stm32f1xx_ll_i2c.h **** __STATIC_INLINE void LL_I2C_DisableDMAReq_TX(I2C_TypeDef *I2Cx)
 395:Drivers/STM32F1xx_HAL_Driver/Inc/stm32f1xx_ll_i2c.h **** {
 396:Drivers/STM32F1xx_HAL_Driver/Inc/stm32f1xx_ll_i2c.h ****   CLEAR_BIT(I2Cx->CR2, I2C_CR2_DMAEN);
 397:Drivers/STM32F1xx_HAL_Driver/Inc/stm32f1xx_ll_i2c.h **** }
 398:Drivers/STM32F1xx_HAL_Driver/Inc/stm32f1xx_ll_i2c.h **** 
 399:Drivers/STM32F1xx_HAL_Driver/Inc/stm32f1xx_ll_i2c.h **** /**
 400:Drivers/STM32F1xx_HAL_Driver/Inc/stm32f1xx_ll_i2c.h ****   * @brief  Check if DMA transmission requests are enabled or disabled.
 401:Drivers/STM32F1xx_HAL_Driver/Inc/stm32f1xx_ll_i2c.h ****   * @rmtoll CR2          DMAEN         LL_I2C_IsEnabledDMAReq_TX
 402:Drivers/STM32F1xx_HAL_Driver/Inc/stm32f1xx_ll_i2c.h ****   * @param  I2Cx I2C Instance.
 403:Drivers/STM32F1xx_HAL_Driver/Inc/stm32f1xx_ll_i2c.h ****   * @retval State of bit (1 or 0).
 404:Drivers/STM32F1xx_HAL_Driver/Inc/stm32f1xx_ll_i2c.h ****   */
 405:Drivers/STM32F1xx_HAL_Driver/Inc/stm32f1xx_ll_i2c.h **** __STATIC_INLINE uint32_t LL_I2C_IsEnabledDMAReq_TX(I2C_TypeDef *I2Cx)
 406:Drivers/STM32F1xx_HAL_Driver/Inc/stm32f1xx_ll_i2c.h **** {
 407:Drivers/STM32F1xx_HAL_Driver/Inc/stm32f1xx_ll_i2c.h ****   return (READ_BIT(I2Cx->CR2, I2C_CR2_DMAEN) == (I2C_CR2_DMAEN));
 408:Drivers/STM32F1xx_HAL_Driver/Inc/stm32f1xx_ll_i2c.h **** }
 409:Drivers/STM32F1xx_HAL_Driver/Inc/stm32f1xx_ll_i2c.h **** 
 410:Drivers/STM32F1xx_HAL_Driver/Inc/stm32f1xx_ll_i2c.h **** /**
 411:Drivers/STM32F1xx_HAL_Driver/Inc/stm32f1xx_ll_i2c.h ****   * @brief  Enable DMA reception requests.
 412:Drivers/STM32F1xx_HAL_Driver/Inc/stm32f1xx_ll_i2c.h ****   * @rmtoll CR2          DMAEN         LL_I2C_EnableDMAReq_RX
 413:Drivers/STM32F1xx_HAL_Driver/Inc/stm32f1xx_ll_i2c.h ****   * @param  I2Cx I2C Instance.
 414:Drivers/STM32F1xx_HAL_Driver/Inc/stm32f1xx_ll_i2c.h ****   * @retval None
 415:Drivers/STM32F1xx_HAL_Driver/Inc/stm32f1xx_ll_i2c.h ****   */
 416:Drivers/STM32F1xx_HAL_Driver/Inc/stm32f1xx_ll_i2c.h **** __STATIC_INLINE void LL_I2C_EnableDMAReq_RX(I2C_TypeDef *I2Cx)
 417:Drivers/STM32F1xx_HAL_Driver/Inc/stm32f1xx_ll_i2c.h **** {
ARM GAS  /tmp/ccSSjYDs.s 			page 27


 418:Drivers/STM32F1xx_HAL_Driver/Inc/stm32f1xx_ll_i2c.h ****   SET_BIT(I2Cx->CR2, I2C_CR2_DMAEN);
 419:Drivers/STM32F1xx_HAL_Driver/Inc/stm32f1xx_ll_i2c.h **** }
 420:Drivers/STM32F1xx_HAL_Driver/Inc/stm32f1xx_ll_i2c.h **** 
 421:Drivers/STM32F1xx_HAL_Driver/Inc/stm32f1xx_ll_i2c.h **** /**
 422:Drivers/STM32F1xx_HAL_Driver/Inc/stm32f1xx_ll_i2c.h ****   * @brief  Disable DMA reception requests.
 423:Drivers/STM32F1xx_HAL_Driver/Inc/stm32f1xx_ll_i2c.h ****   * @rmtoll CR2          DMAEN         LL_I2C_DisableDMAReq_RX
 424:Drivers/STM32F1xx_HAL_Driver/Inc/stm32f1xx_ll_i2c.h ****   * @param  I2Cx I2C Instance.
 425:Drivers/STM32F1xx_HAL_Driver/Inc/stm32f1xx_ll_i2c.h ****   * @retval None
 426:Drivers/STM32F1xx_HAL_Driver/Inc/stm32f1xx_ll_i2c.h ****   */
 427:Drivers/STM32F1xx_HAL_Driver/Inc/stm32f1xx_ll_i2c.h **** __STATIC_INLINE void LL_I2C_DisableDMAReq_RX(I2C_TypeDef *I2Cx)
 428:Drivers/STM32F1xx_HAL_Driver/Inc/stm32f1xx_ll_i2c.h **** {
 429:Drivers/STM32F1xx_HAL_Driver/Inc/stm32f1xx_ll_i2c.h ****   CLEAR_BIT(I2Cx->CR2, I2C_CR2_DMAEN);
 430:Drivers/STM32F1xx_HAL_Driver/Inc/stm32f1xx_ll_i2c.h **** }
 431:Drivers/STM32F1xx_HAL_Driver/Inc/stm32f1xx_ll_i2c.h **** 
 432:Drivers/STM32F1xx_HAL_Driver/Inc/stm32f1xx_ll_i2c.h **** /**
 433:Drivers/STM32F1xx_HAL_Driver/Inc/stm32f1xx_ll_i2c.h ****   * @brief  Check if DMA reception requests are enabled or disabled.
 434:Drivers/STM32F1xx_HAL_Driver/Inc/stm32f1xx_ll_i2c.h ****   * @rmtoll CR2          DMAEN         LL_I2C_IsEnabledDMAReq_RX
 435:Drivers/STM32F1xx_HAL_Driver/Inc/stm32f1xx_ll_i2c.h ****   * @param  I2Cx I2C Instance.
 436:Drivers/STM32F1xx_HAL_Driver/Inc/stm32f1xx_ll_i2c.h ****   * @retval State of bit (1 or 0).
 437:Drivers/STM32F1xx_HAL_Driver/Inc/stm32f1xx_ll_i2c.h ****   */
 438:Drivers/STM32F1xx_HAL_Driver/Inc/stm32f1xx_ll_i2c.h **** __STATIC_INLINE uint32_t LL_I2C_IsEnabledDMAReq_RX(I2C_TypeDef *I2Cx)
 439:Drivers/STM32F1xx_HAL_Driver/Inc/stm32f1xx_ll_i2c.h **** {
 440:Drivers/STM32F1xx_HAL_Driver/Inc/stm32f1xx_ll_i2c.h ****   return (READ_BIT(I2Cx->CR2, I2C_CR2_DMAEN) == (I2C_CR2_DMAEN));
 441:Drivers/STM32F1xx_HAL_Driver/Inc/stm32f1xx_ll_i2c.h **** }
 442:Drivers/STM32F1xx_HAL_Driver/Inc/stm32f1xx_ll_i2c.h **** 
 443:Drivers/STM32F1xx_HAL_Driver/Inc/stm32f1xx_ll_i2c.h **** /**
 444:Drivers/STM32F1xx_HAL_Driver/Inc/stm32f1xx_ll_i2c.h ****   * @brief  Get the data register address used for DMA transfer.
 445:Drivers/STM32F1xx_HAL_Driver/Inc/stm32f1xx_ll_i2c.h ****   * @rmtoll DR           DR            LL_I2C_DMA_GetRegAddr
 446:Drivers/STM32F1xx_HAL_Driver/Inc/stm32f1xx_ll_i2c.h ****   * @param  I2Cx I2C Instance.
 447:Drivers/STM32F1xx_HAL_Driver/Inc/stm32f1xx_ll_i2c.h ****   * @retval Address of data register
 448:Drivers/STM32F1xx_HAL_Driver/Inc/stm32f1xx_ll_i2c.h ****   */
 449:Drivers/STM32F1xx_HAL_Driver/Inc/stm32f1xx_ll_i2c.h **** __STATIC_INLINE uint32_t LL_I2C_DMA_GetRegAddr(I2C_TypeDef *I2Cx)
 450:Drivers/STM32F1xx_HAL_Driver/Inc/stm32f1xx_ll_i2c.h **** {
 451:Drivers/STM32F1xx_HAL_Driver/Inc/stm32f1xx_ll_i2c.h ****   return (uint32_t) & (I2Cx->DR);
 452:Drivers/STM32F1xx_HAL_Driver/Inc/stm32f1xx_ll_i2c.h **** }
 453:Drivers/STM32F1xx_HAL_Driver/Inc/stm32f1xx_ll_i2c.h **** 
 454:Drivers/STM32F1xx_HAL_Driver/Inc/stm32f1xx_ll_i2c.h **** /**
 455:Drivers/STM32F1xx_HAL_Driver/Inc/stm32f1xx_ll_i2c.h ****   * @brief  Enable Clock stretching.
 456:Drivers/STM32F1xx_HAL_Driver/Inc/stm32f1xx_ll_i2c.h ****   * @note   This bit can only be programmed when the I2C is disabled (PE = 0).
 457:Drivers/STM32F1xx_HAL_Driver/Inc/stm32f1xx_ll_i2c.h ****   * @rmtoll CR1          NOSTRETCH     LL_I2C_EnableClockStretching
 458:Drivers/STM32F1xx_HAL_Driver/Inc/stm32f1xx_ll_i2c.h ****   * @param  I2Cx I2C Instance.
 459:Drivers/STM32F1xx_HAL_Driver/Inc/stm32f1xx_ll_i2c.h ****   * @retval None
 460:Drivers/STM32F1xx_HAL_Driver/Inc/stm32f1xx_ll_i2c.h ****   */
 461:Drivers/STM32F1xx_HAL_Driver/Inc/stm32f1xx_ll_i2c.h **** __STATIC_INLINE void LL_I2C_EnableClockStretching(I2C_TypeDef *I2Cx)
 462:Drivers/STM32F1xx_HAL_Driver/Inc/stm32f1xx_ll_i2c.h **** {
 463:Drivers/STM32F1xx_HAL_Driver/Inc/stm32f1xx_ll_i2c.h ****   CLEAR_BIT(I2Cx->CR1, I2C_CR1_NOSTRETCH);
 464:Drivers/STM32F1xx_HAL_Driver/Inc/stm32f1xx_ll_i2c.h **** }
 465:Drivers/STM32F1xx_HAL_Driver/Inc/stm32f1xx_ll_i2c.h **** 
 466:Drivers/STM32F1xx_HAL_Driver/Inc/stm32f1xx_ll_i2c.h **** /**
 467:Drivers/STM32F1xx_HAL_Driver/Inc/stm32f1xx_ll_i2c.h ****   * @brief  Disable Clock stretching.
 468:Drivers/STM32F1xx_HAL_Driver/Inc/stm32f1xx_ll_i2c.h ****   * @note   This bit can only be programmed when the I2C is disabled (PE = 0).
 469:Drivers/STM32F1xx_HAL_Driver/Inc/stm32f1xx_ll_i2c.h ****   * @rmtoll CR1          NOSTRETCH     LL_I2C_DisableClockStretching
 470:Drivers/STM32F1xx_HAL_Driver/Inc/stm32f1xx_ll_i2c.h ****   * @param  I2Cx I2C Instance.
 471:Drivers/STM32F1xx_HAL_Driver/Inc/stm32f1xx_ll_i2c.h ****   * @retval None
 472:Drivers/STM32F1xx_HAL_Driver/Inc/stm32f1xx_ll_i2c.h ****   */
 473:Drivers/STM32F1xx_HAL_Driver/Inc/stm32f1xx_ll_i2c.h **** __STATIC_INLINE void LL_I2C_DisableClockStretching(I2C_TypeDef *I2Cx)
 474:Drivers/STM32F1xx_HAL_Driver/Inc/stm32f1xx_ll_i2c.h **** {
ARM GAS  /tmp/ccSSjYDs.s 			page 28


 475:Drivers/STM32F1xx_HAL_Driver/Inc/stm32f1xx_ll_i2c.h ****   SET_BIT(I2Cx->CR1, I2C_CR1_NOSTRETCH);
 476:Drivers/STM32F1xx_HAL_Driver/Inc/stm32f1xx_ll_i2c.h **** }
 477:Drivers/STM32F1xx_HAL_Driver/Inc/stm32f1xx_ll_i2c.h **** 
 478:Drivers/STM32F1xx_HAL_Driver/Inc/stm32f1xx_ll_i2c.h **** /**
 479:Drivers/STM32F1xx_HAL_Driver/Inc/stm32f1xx_ll_i2c.h ****   * @brief  Check if Clock stretching is enabled or disabled.
 480:Drivers/STM32F1xx_HAL_Driver/Inc/stm32f1xx_ll_i2c.h ****   * @rmtoll CR1          NOSTRETCH     LL_I2C_IsEnabledClockStretching
 481:Drivers/STM32F1xx_HAL_Driver/Inc/stm32f1xx_ll_i2c.h ****   * @param  I2Cx I2C Instance.
 482:Drivers/STM32F1xx_HAL_Driver/Inc/stm32f1xx_ll_i2c.h ****   * @retval State of bit (1 or 0).
 483:Drivers/STM32F1xx_HAL_Driver/Inc/stm32f1xx_ll_i2c.h ****   */
 484:Drivers/STM32F1xx_HAL_Driver/Inc/stm32f1xx_ll_i2c.h **** __STATIC_INLINE uint32_t LL_I2C_IsEnabledClockStretching(I2C_TypeDef *I2Cx)
 485:Drivers/STM32F1xx_HAL_Driver/Inc/stm32f1xx_ll_i2c.h **** {
 486:Drivers/STM32F1xx_HAL_Driver/Inc/stm32f1xx_ll_i2c.h ****   return (READ_BIT(I2Cx->CR1, I2C_CR1_NOSTRETCH) != (I2C_CR1_NOSTRETCH));
 487:Drivers/STM32F1xx_HAL_Driver/Inc/stm32f1xx_ll_i2c.h **** }
 488:Drivers/STM32F1xx_HAL_Driver/Inc/stm32f1xx_ll_i2c.h **** 
 489:Drivers/STM32F1xx_HAL_Driver/Inc/stm32f1xx_ll_i2c.h **** /**
 490:Drivers/STM32F1xx_HAL_Driver/Inc/stm32f1xx_ll_i2c.h ****   * @brief  Enable General Call.
 491:Drivers/STM32F1xx_HAL_Driver/Inc/stm32f1xx_ll_i2c.h ****   * @note   When enabled the Address 0x00 is ACKed.
 492:Drivers/STM32F1xx_HAL_Driver/Inc/stm32f1xx_ll_i2c.h ****   * @rmtoll CR1          ENGC          LL_I2C_EnableGeneralCall
 493:Drivers/STM32F1xx_HAL_Driver/Inc/stm32f1xx_ll_i2c.h ****   * @param  I2Cx I2C Instance.
 494:Drivers/STM32F1xx_HAL_Driver/Inc/stm32f1xx_ll_i2c.h ****   * @retval None
 495:Drivers/STM32F1xx_HAL_Driver/Inc/stm32f1xx_ll_i2c.h ****   */
 496:Drivers/STM32F1xx_HAL_Driver/Inc/stm32f1xx_ll_i2c.h **** __STATIC_INLINE void LL_I2C_EnableGeneralCall(I2C_TypeDef *I2Cx)
 497:Drivers/STM32F1xx_HAL_Driver/Inc/stm32f1xx_ll_i2c.h **** {
 498:Drivers/STM32F1xx_HAL_Driver/Inc/stm32f1xx_ll_i2c.h ****   SET_BIT(I2Cx->CR1, I2C_CR1_ENGC);
 499:Drivers/STM32F1xx_HAL_Driver/Inc/stm32f1xx_ll_i2c.h **** }
 500:Drivers/STM32F1xx_HAL_Driver/Inc/stm32f1xx_ll_i2c.h **** 
 501:Drivers/STM32F1xx_HAL_Driver/Inc/stm32f1xx_ll_i2c.h **** /**
 502:Drivers/STM32F1xx_HAL_Driver/Inc/stm32f1xx_ll_i2c.h ****   * @brief  Disable General Call.
 503:Drivers/STM32F1xx_HAL_Driver/Inc/stm32f1xx_ll_i2c.h ****   * @note   When disabled the Address 0x00 is NACKed.
 504:Drivers/STM32F1xx_HAL_Driver/Inc/stm32f1xx_ll_i2c.h ****   * @rmtoll CR1          ENGC          LL_I2C_DisableGeneralCall
 505:Drivers/STM32F1xx_HAL_Driver/Inc/stm32f1xx_ll_i2c.h ****   * @param  I2Cx I2C Instance.
 506:Drivers/STM32F1xx_HAL_Driver/Inc/stm32f1xx_ll_i2c.h ****   * @retval None
 507:Drivers/STM32F1xx_HAL_Driver/Inc/stm32f1xx_ll_i2c.h ****   */
 508:Drivers/STM32F1xx_HAL_Driver/Inc/stm32f1xx_ll_i2c.h **** __STATIC_INLINE void LL_I2C_DisableGeneralCall(I2C_TypeDef *I2Cx)
 509:Drivers/STM32F1xx_HAL_Driver/Inc/stm32f1xx_ll_i2c.h **** {
 510:Drivers/STM32F1xx_HAL_Driver/Inc/stm32f1xx_ll_i2c.h ****   CLEAR_BIT(I2Cx->CR1, I2C_CR1_ENGC);
 511:Drivers/STM32F1xx_HAL_Driver/Inc/stm32f1xx_ll_i2c.h **** }
 512:Drivers/STM32F1xx_HAL_Driver/Inc/stm32f1xx_ll_i2c.h **** 
 513:Drivers/STM32F1xx_HAL_Driver/Inc/stm32f1xx_ll_i2c.h **** /**
 514:Drivers/STM32F1xx_HAL_Driver/Inc/stm32f1xx_ll_i2c.h ****   * @brief  Check if General Call is enabled or disabled.
 515:Drivers/STM32F1xx_HAL_Driver/Inc/stm32f1xx_ll_i2c.h ****   * @rmtoll CR1          ENGC          LL_I2C_IsEnabledGeneralCall
 516:Drivers/STM32F1xx_HAL_Driver/Inc/stm32f1xx_ll_i2c.h ****   * @param  I2Cx I2C Instance.
 517:Drivers/STM32F1xx_HAL_Driver/Inc/stm32f1xx_ll_i2c.h ****   * @retval State of bit (1 or 0).
 518:Drivers/STM32F1xx_HAL_Driver/Inc/stm32f1xx_ll_i2c.h ****   */
 519:Drivers/STM32F1xx_HAL_Driver/Inc/stm32f1xx_ll_i2c.h **** __STATIC_INLINE uint32_t LL_I2C_IsEnabledGeneralCall(I2C_TypeDef *I2Cx)
 520:Drivers/STM32F1xx_HAL_Driver/Inc/stm32f1xx_ll_i2c.h **** {
 521:Drivers/STM32F1xx_HAL_Driver/Inc/stm32f1xx_ll_i2c.h ****   return (READ_BIT(I2Cx->CR1, I2C_CR1_ENGC) == (I2C_CR1_ENGC));
 522:Drivers/STM32F1xx_HAL_Driver/Inc/stm32f1xx_ll_i2c.h **** }
 523:Drivers/STM32F1xx_HAL_Driver/Inc/stm32f1xx_ll_i2c.h **** 
 524:Drivers/STM32F1xx_HAL_Driver/Inc/stm32f1xx_ll_i2c.h **** /**
 525:Drivers/STM32F1xx_HAL_Driver/Inc/stm32f1xx_ll_i2c.h ****   * @brief  Set the Own Address1.
 526:Drivers/STM32F1xx_HAL_Driver/Inc/stm32f1xx_ll_i2c.h ****   * @rmtoll OAR1         ADD0          LL_I2C_SetOwnAddress1\n
 527:Drivers/STM32F1xx_HAL_Driver/Inc/stm32f1xx_ll_i2c.h ****   *         OAR1         ADD1_7        LL_I2C_SetOwnAddress1\n
 528:Drivers/STM32F1xx_HAL_Driver/Inc/stm32f1xx_ll_i2c.h ****   *         OAR1         ADD8_9        LL_I2C_SetOwnAddress1\n
 529:Drivers/STM32F1xx_HAL_Driver/Inc/stm32f1xx_ll_i2c.h ****   *         OAR1         ADDMODE       LL_I2C_SetOwnAddress1
 530:Drivers/STM32F1xx_HAL_Driver/Inc/stm32f1xx_ll_i2c.h ****   * @param  I2Cx I2C Instance.
 531:Drivers/STM32F1xx_HAL_Driver/Inc/stm32f1xx_ll_i2c.h ****   * @param  OwnAddress1 This parameter must be a value between Min_Data=0 and Max_Data=0x3FF.
ARM GAS  /tmp/ccSSjYDs.s 			page 29


 532:Drivers/STM32F1xx_HAL_Driver/Inc/stm32f1xx_ll_i2c.h ****   * @param  OwnAddrSize This parameter can be one of the following values:
 533:Drivers/STM32F1xx_HAL_Driver/Inc/stm32f1xx_ll_i2c.h ****   *         @arg @ref LL_I2C_OWNADDRESS1_7BIT
 534:Drivers/STM32F1xx_HAL_Driver/Inc/stm32f1xx_ll_i2c.h ****   *         @arg @ref LL_I2C_OWNADDRESS1_10BIT
 535:Drivers/STM32F1xx_HAL_Driver/Inc/stm32f1xx_ll_i2c.h ****   * @retval None
 536:Drivers/STM32F1xx_HAL_Driver/Inc/stm32f1xx_ll_i2c.h ****   */
 537:Drivers/STM32F1xx_HAL_Driver/Inc/stm32f1xx_ll_i2c.h **** __STATIC_INLINE void LL_I2C_SetOwnAddress1(I2C_TypeDef *I2Cx, uint32_t OwnAddress1, uint32_t OwnAdd
 538:Drivers/STM32F1xx_HAL_Driver/Inc/stm32f1xx_ll_i2c.h **** {
 539:Drivers/STM32F1xx_HAL_Driver/Inc/stm32f1xx_ll_i2c.h ****   MODIFY_REG(I2Cx->OAR1, I2C_OAR1_ADD0 | I2C_OAR1_ADD1_7 | I2C_OAR1_ADD8_9 | I2C_OAR1_ADDMODE, OwnA
 540:Drivers/STM32F1xx_HAL_Driver/Inc/stm32f1xx_ll_i2c.h **** }
 541:Drivers/STM32F1xx_HAL_Driver/Inc/stm32f1xx_ll_i2c.h **** 
 542:Drivers/STM32F1xx_HAL_Driver/Inc/stm32f1xx_ll_i2c.h **** /**
 543:Drivers/STM32F1xx_HAL_Driver/Inc/stm32f1xx_ll_i2c.h ****   * @brief  Set the 7bits Own Address2.
 544:Drivers/STM32F1xx_HAL_Driver/Inc/stm32f1xx_ll_i2c.h ****   * @note   This action has no effect if own address2 is enabled.
 545:Drivers/STM32F1xx_HAL_Driver/Inc/stm32f1xx_ll_i2c.h ****   * @rmtoll OAR2         ADD2          LL_I2C_SetOwnAddress2
 546:Drivers/STM32F1xx_HAL_Driver/Inc/stm32f1xx_ll_i2c.h ****   * @param  I2Cx I2C Instance.
 547:Drivers/STM32F1xx_HAL_Driver/Inc/stm32f1xx_ll_i2c.h ****   * @param  OwnAddress2 This parameter must be a value between Min_Data=0 and Max_Data=0x7F.
 548:Drivers/STM32F1xx_HAL_Driver/Inc/stm32f1xx_ll_i2c.h ****   * @retval None
 549:Drivers/STM32F1xx_HAL_Driver/Inc/stm32f1xx_ll_i2c.h ****   */
 550:Drivers/STM32F1xx_HAL_Driver/Inc/stm32f1xx_ll_i2c.h **** __STATIC_INLINE void LL_I2C_SetOwnAddress2(I2C_TypeDef *I2Cx, uint32_t OwnAddress2)
 551:Drivers/STM32F1xx_HAL_Driver/Inc/stm32f1xx_ll_i2c.h **** {
 552:Drivers/STM32F1xx_HAL_Driver/Inc/stm32f1xx_ll_i2c.h ****   MODIFY_REG(I2Cx->OAR2, I2C_OAR2_ADD2, OwnAddress2);
 553:Drivers/STM32F1xx_HAL_Driver/Inc/stm32f1xx_ll_i2c.h **** }
 554:Drivers/STM32F1xx_HAL_Driver/Inc/stm32f1xx_ll_i2c.h **** 
 555:Drivers/STM32F1xx_HAL_Driver/Inc/stm32f1xx_ll_i2c.h **** /**
 556:Drivers/STM32F1xx_HAL_Driver/Inc/stm32f1xx_ll_i2c.h ****   * @brief  Enable acknowledge on Own Address2 match address.
 557:Drivers/STM32F1xx_HAL_Driver/Inc/stm32f1xx_ll_i2c.h ****   * @rmtoll OAR2         ENDUAL        LL_I2C_EnableOwnAddress2
 558:Drivers/STM32F1xx_HAL_Driver/Inc/stm32f1xx_ll_i2c.h ****   * @param  I2Cx I2C Instance.
 559:Drivers/STM32F1xx_HAL_Driver/Inc/stm32f1xx_ll_i2c.h ****   * @retval None
 560:Drivers/STM32F1xx_HAL_Driver/Inc/stm32f1xx_ll_i2c.h ****   */
 561:Drivers/STM32F1xx_HAL_Driver/Inc/stm32f1xx_ll_i2c.h **** __STATIC_INLINE void LL_I2C_EnableOwnAddress2(I2C_TypeDef *I2Cx)
 562:Drivers/STM32F1xx_HAL_Driver/Inc/stm32f1xx_ll_i2c.h **** {
 563:Drivers/STM32F1xx_HAL_Driver/Inc/stm32f1xx_ll_i2c.h ****   SET_BIT(I2Cx->OAR2, I2C_OAR2_ENDUAL);
 564:Drivers/STM32F1xx_HAL_Driver/Inc/stm32f1xx_ll_i2c.h **** }
 565:Drivers/STM32F1xx_HAL_Driver/Inc/stm32f1xx_ll_i2c.h **** 
 566:Drivers/STM32F1xx_HAL_Driver/Inc/stm32f1xx_ll_i2c.h **** /**
 567:Drivers/STM32F1xx_HAL_Driver/Inc/stm32f1xx_ll_i2c.h ****   * @brief  Disable  acknowledge on Own Address2 match address.
 568:Drivers/STM32F1xx_HAL_Driver/Inc/stm32f1xx_ll_i2c.h ****   * @rmtoll OAR2         ENDUAL        LL_I2C_DisableOwnAddress2
 569:Drivers/STM32F1xx_HAL_Driver/Inc/stm32f1xx_ll_i2c.h ****   * @param  I2Cx I2C Instance.
 570:Drivers/STM32F1xx_HAL_Driver/Inc/stm32f1xx_ll_i2c.h ****   * @retval None
 571:Drivers/STM32F1xx_HAL_Driver/Inc/stm32f1xx_ll_i2c.h ****   */
 572:Drivers/STM32F1xx_HAL_Driver/Inc/stm32f1xx_ll_i2c.h **** __STATIC_INLINE void LL_I2C_DisableOwnAddress2(I2C_TypeDef *I2Cx)
 573:Drivers/STM32F1xx_HAL_Driver/Inc/stm32f1xx_ll_i2c.h **** {
 574:Drivers/STM32F1xx_HAL_Driver/Inc/stm32f1xx_ll_i2c.h ****   CLEAR_BIT(I2Cx->OAR2, I2C_OAR2_ENDUAL);
 575:Drivers/STM32F1xx_HAL_Driver/Inc/stm32f1xx_ll_i2c.h **** }
 576:Drivers/STM32F1xx_HAL_Driver/Inc/stm32f1xx_ll_i2c.h **** 
 577:Drivers/STM32F1xx_HAL_Driver/Inc/stm32f1xx_ll_i2c.h **** /**
 578:Drivers/STM32F1xx_HAL_Driver/Inc/stm32f1xx_ll_i2c.h ****   * @brief  Check if Own Address1 acknowledge is enabled or disabled.
 579:Drivers/STM32F1xx_HAL_Driver/Inc/stm32f1xx_ll_i2c.h ****   * @rmtoll OAR2         ENDUAL        LL_I2C_IsEnabledOwnAddress2
 580:Drivers/STM32F1xx_HAL_Driver/Inc/stm32f1xx_ll_i2c.h ****   * @param  I2Cx I2C Instance.
 581:Drivers/STM32F1xx_HAL_Driver/Inc/stm32f1xx_ll_i2c.h ****   * @retval State of bit (1 or 0).
 582:Drivers/STM32F1xx_HAL_Driver/Inc/stm32f1xx_ll_i2c.h ****   */
 583:Drivers/STM32F1xx_HAL_Driver/Inc/stm32f1xx_ll_i2c.h **** __STATIC_INLINE uint32_t LL_I2C_IsEnabledOwnAddress2(I2C_TypeDef *I2Cx)
 584:Drivers/STM32F1xx_HAL_Driver/Inc/stm32f1xx_ll_i2c.h **** {
 585:Drivers/STM32F1xx_HAL_Driver/Inc/stm32f1xx_ll_i2c.h ****   return (READ_BIT(I2Cx->OAR2, I2C_OAR2_ENDUAL) == (I2C_OAR2_ENDUAL));
 586:Drivers/STM32F1xx_HAL_Driver/Inc/stm32f1xx_ll_i2c.h **** }
 587:Drivers/STM32F1xx_HAL_Driver/Inc/stm32f1xx_ll_i2c.h **** 
 588:Drivers/STM32F1xx_HAL_Driver/Inc/stm32f1xx_ll_i2c.h **** /**
ARM GAS  /tmp/ccSSjYDs.s 			page 30


 589:Drivers/STM32F1xx_HAL_Driver/Inc/stm32f1xx_ll_i2c.h ****   * @brief  Configure the Peripheral clock frequency.
 590:Drivers/STM32F1xx_HAL_Driver/Inc/stm32f1xx_ll_i2c.h ****   * @rmtoll CR2          FREQ          LL_I2C_SetPeriphClock
 591:Drivers/STM32F1xx_HAL_Driver/Inc/stm32f1xx_ll_i2c.h ****   * @param  I2Cx I2C Instance.
 592:Drivers/STM32F1xx_HAL_Driver/Inc/stm32f1xx_ll_i2c.h ****   * @param  PeriphClock Peripheral Clock (in Hz)
 593:Drivers/STM32F1xx_HAL_Driver/Inc/stm32f1xx_ll_i2c.h ****   * @retval None
 594:Drivers/STM32F1xx_HAL_Driver/Inc/stm32f1xx_ll_i2c.h ****   */
 595:Drivers/STM32F1xx_HAL_Driver/Inc/stm32f1xx_ll_i2c.h **** __STATIC_INLINE void LL_I2C_SetPeriphClock(I2C_TypeDef *I2Cx, uint32_t PeriphClock)
 596:Drivers/STM32F1xx_HAL_Driver/Inc/stm32f1xx_ll_i2c.h **** {
 597:Drivers/STM32F1xx_HAL_Driver/Inc/stm32f1xx_ll_i2c.h ****   MODIFY_REG(I2Cx->CR2, I2C_CR2_FREQ, __LL_I2C_FREQ_HZ_TO_MHZ(PeriphClock));
 598:Drivers/STM32F1xx_HAL_Driver/Inc/stm32f1xx_ll_i2c.h **** }
 599:Drivers/STM32F1xx_HAL_Driver/Inc/stm32f1xx_ll_i2c.h **** 
 600:Drivers/STM32F1xx_HAL_Driver/Inc/stm32f1xx_ll_i2c.h **** /**
 601:Drivers/STM32F1xx_HAL_Driver/Inc/stm32f1xx_ll_i2c.h ****   * @brief  Get the Peripheral clock frequency.
 602:Drivers/STM32F1xx_HAL_Driver/Inc/stm32f1xx_ll_i2c.h ****   * @rmtoll CR2          FREQ          LL_I2C_GetPeriphClock
 603:Drivers/STM32F1xx_HAL_Driver/Inc/stm32f1xx_ll_i2c.h ****   * @param  I2Cx I2C Instance.
 604:Drivers/STM32F1xx_HAL_Driver/Inc/stm32f1xx_ll_i2c.h ****   * @retval Value of Peripheral Clock (in Hz)
 605:Drivers/STM32F1xx_HAL_Driver/Inc/stm32f1xx_ll_i2c.h ****   */
 606:Drivers/STM32F1xx_HAL_Driver/Inc/stm32f1xx_ll_i2c.h **** __STATIC_INLINE uint32_t LL_I2C_GetPeriphClock(I2C_TypeDef *I2Cx)
 607:Drivers/STM32F1xx_HAL_Driver/Inc/stm32f1xx_ll_i2c.h **** {
 608:Drivers/STM32F1xx_HAL_Driver/Inc/stm32f1xx_ll_i2c.h ****   return (uint32_t)(__LL_I2C_FREQ_MHZ_TO_HZ(READ_BIT(I2Cx->CR2, I2C_CR2_FREQ)));
 609:Drivers/STM32F1xx_HAL_Driver/Inc/stm32f1xx_ll_i2c.h **** }
 610:Drivers/STM32F1xx_HAL_Driver/Inc/stm32f1xx_ll_i2c.h **** 
 611:Drivers/STM32F1xx_HAL_Driver/Inc/stm32f1xx_ll_i2c.h **** /**
 612:Drivers/STM32F1xx_HAL_Driver/Inc/stm32f1xx_ll_i2c.h ****   * @brief  Configure the Duty cycle (Fast mode only).
 613:Drivers/STM32F1xx_HAL_Driver/Inc/stm32f1xx_ll_i2c.h ****   * @rmtoll CCR          DUTY          LL_I2C_SetDutyCycle
 614:Drivers/STM32F1xx_HAL_Driver/Inc/stm32f1xx_ll_i2c.h ****   * @param  I2Cx I2C Instance.
 615:Drivers/STM32F1xx_HAL_Driver/Inc/stm32f1xx_ll_i2c.h ****   * @param  DutyCycle This parameter can be one of the following values:
 616:Drivers/STM32F1xx_HAL_Driver/Inc/stm32f1xx_ll_i2c.h ****   *         @arg @ref LL_I2C_DUTYCYCLE_2
 617:Drivers/STM32F1xx_HAL_Driver/Inc/stm32f1xx_ll_i2c.h ****   *         @arg @ref LL_I2C_DUTYCYCLE_16_9
 618:Drivers/STM32F1xx_HAL_Driver/Inc/stm32f1xx_ll_i2c.h ****   * @retval None
 619:Drivers/STM32F1xx_HAL_Driver/Inc/stm32f1xx_ll_i2c.h ****   */
 620:Drivers/STM32F1xx_HAL_Driver/Inc/stm32f1xx_ll_i2c.h **** __STATIC_INLINE void LL_I2C_SetDutyCycle(I2C_TypeDef *I2Cx, uint32_t DutyCycle)
 621:Drivers/STM32F1xx_HAL_Driver/Inc/stm32f1xx_ll_i2c.h **** {
 622:Drivers/STM32F1xx_HAL_Driver/Inc/stm32f1xx_ll_i2c.h ****   MODIFY_REG(I2Cx->CCR, I2C_CCR_DUTY, DutyCycle);
 623:Drivers/STM32F1xx_HAL_Driver/Inc/stm32f1xx_ll_i2c.h **** }
 624:Drivers/STM32F1xx_HAL_Driver/Inc/stm32f1xx_ll_i2c.h **** 
 625:Drivers/STM32F1xx_HAL_Driver/Inc/stm32f1xx_ll_i2c.h **** /**
 626:Drivers/STM32F1xx_HAL_Driver/Inc/stm32f1xx_ll_i2c.h ****   * @brief  Get the Duty cycle (Fast mode only).
 627:Drivers/STM32F1xx_HAL_Driver/Inc/stm32f1xx_ll_i2c.h ****   * @rmtoll CCR          DUTY          LL_I2C_GetDutyCycle
 628:Drivers/STM32F1xx_HAL_Driver/Inc/stm32f1xx_ll_i2c.h ****   * @param  I2Cx I2C Instance.
 629:Drivers/STM32F1xx_HAL_Driver/Inc/stm32f1xx_ll_i2c.h ****   * @retval Returned value can be one of the following values:
 630:Drivers/STM32F1xx_HAL_Driver/Inc/stm32f1xx_ll_i2c.h ****   *         @arg @ref LL_I2C_DUTYCYCLE_2
 631:Drivers/STM32F1xx_HAL_Driver/Inc/stm32f1xx_ll_i2c.h ****   *         @arg @ref LL_I2C_DUTYCYCLE_16_9
 632:Drivers/STM32F1xx_HAL_Driver/Inc/stm32f1xx_ll_i2c.h ****   */
 633:Drivers/STM32F1xx_HAL_Driver/Inc/stm32f1xx_ll_i2c.h **** __STATIC_INLINE uint32_t LL_I2C_GetDutyCycle(I2C_TypeDef *I2Cx)
 634:Drivers/STM32F1xx_HAL_Driver/Inc/stm32f1xx_ll_i2c.h **** {
 635:Drivers/STM32F1xx_HAL_Driver/Inc/stm32f1xx_ll_i2c.h ****   return (uint32_t)(READ_BIT(I2Cx->CCR, I2C_CCR_DUTY));
 636:Drivers/STM32F1xx_HAL_Driver/Inc/stm32f1xx_ll_i2c.h **** }
 637:Drivers/STM32F1xx_HAL_Driver/Inc/stm32f1xx_ll_i2c.h **** 
 638:Drivers/STM32F1xx_HAL_Driver/Inc/stm32f1xx_ll_i2c.h **** /**
 639:Drivers/STM32F1xx_HAL_Driver/Inc/stm32f1xx_ll_i2c.h ****   * @brief  Configure the I2C master clock speed mode.
 640:Drivers/STM32F1xx_HAL_Driver/Inc/stm32f1xx_ll_i2c.h ****   * @rmtoll CCR          FS            LL_I2C_SetClockSpeedMode
 641:Drivers/STM32F1xx_HAL_Driver/Inc/stm32f1xx_ll_i2c.h ****   * @param  I2Cx I2C Instance.
 642:Drivers/STM32F1xx_HAL_Driver/Inc/stm32f1xx_ll_i2c.h ****   * @param  ClockSpeedMode This parameter can be one of the following values:
 643:Drivers/STM32F1xx_HAL_Driver/Inc/stm32f1xx_ll_i2c.h ****   *         @arg @ref LL_I2C_CLOCK_SPEED_STANDARD_MODE
 644:Drivers/STM32F1xx_HAL_Driver/Inc/stm32f1xx_ll_i2c.h ****   *         @arg @ref LL_I2C_CLOCK_SPEED_FAST_MODE
 645:Drivers/STM32F1xx_HAL_Driver/Inc/stm32f1xx_ll_i2c.h ****   * @retval None
ARM GAS  /tmp/ccSSjYDs.s 			page 31


 646:Drivers/STM32F1xx_HAL_Driver/Inc/stm32f1xx_ll_i2c.h ****   */
 647:Drivers/STM32F1xx_HAL_Driver/Inc/stm32f1xx_ll_i2c.h **** __STATIC_INLINE void LL_I2C_SetClockSpeedMode(I2C_TypeDef *I2Cx, uint32_t ClockSpeedMode)
 648:Drivers/STM32F1xx_HAL_Driver/Inc/stm32f1xx_ll_i2c.h **** {
 649:Drivers/STM32F1xx_HAL_Driver/Inc/stm32f1xx_ll_i2c.h ****   MODIFY_REG(I2Cx->CCR, I2C_CCR_FS, ClockSpeedMode);
 650:Drivers/STM32F1xx_HAL_Driver/Inc/stm32f1xx_ll_i2c.h **** }
 651:Drivers/STM32F1xx_HAL_Driver/Inc/stm32f1xx_ll_i2c.h **** 
 652:Drivers/STM32F1xx_HAL_Driver/Inc/stm32f1xx_ll_i2c.h **** /**
 653:Drivers/STM32F1xx_HAL_Driver/Inc/stm32f1xx_ll_i2c.h ****   * @brief  Get the the I2C master speed mode.
 654:Drivers/STM32F1xx_HAL_Driver/Inc/stm32f1xx_ll_i2c.h ****   * @rmtoll CCR          FS            LL_I2C_GetClockSpeedMode
 655:Drivers/STM32F1xx_HAL_Driver/Inc/stm32f1xx_ll_i2c.h ****   * @param  I2Cx I2C Instance.
 656:Drivers/STM32F1xx_HAL_Driver/Inc/stm32f1xx_ll_i2c.h ****   * @retval Returned value can be one of the following values:
 657:Drivers/STM32F1xx_HAL_Driver/Inc/stm32f1xx_ll_i2c.h ****   *         @arg @ref LL_I2C_CLOCK_SPEED_STANDARD_MODE
 658:Drivers/STM32F1xx_HAL_Driver/Inc/stm32f1xx_ll_i2c.h ****   *         @arg @ref LL_I2C_CLOCK_SPEED_FAST_MODE
 659:Drivers/STM32F1xx_HAL_Driver/Inc/stm32f1xx_ll_i2c.h ****   */
 660:Drivers/STM32F1xx_HAL_Driver/Inc/stm32f1xx_ll_i2c.h **** __STATIC_INLINE uint32_t LL_I2C_GetClockSpeedMode(I2C_TypeDef *I2Cx)
 661:Drivers/STM32F1xx_HAL_Driver/Inc/stm32f1xx_ll_i2c.h **** {
 662:Drivers/STM32F1xx_HAL_Driver/Inc/stm32f1xx_ll_i2c.h ****   return (uint32_t)(READ_BIT(I2Cx->CCR, I2C_CCR_FS));
 663:Drivers/STM32F1xx_HAL_Driver/Inc/stm32f1xx_ll_i2c.h **** }
 664:Drivers/STM32F1xx_HAL_Driver/Inc/stm32f1xx_ll_i2c.h **** 
 665:Drivers/STM32F1xx_HAL_Driver/Inc/stm32f1xx_ll_i2c.h **** /**
 666:Drivers/STM32F1xx_HAL_Driver/Inc/stm32f1xx_ll_i2c.h ****   * @brief  Configure the SCL, SDA rising time.
 667:Drivers/STM32F1xx_HAL_Driver/Inc/stm32f1xx_ll_i2c.h ****   * @note   This bit can only be programmed when the I2C is disabled (PE = 0).
 668:Drivers/STM32F1xx_HAL_Driver/Inc/stm32f1xx_ll_i2c.h ****   * @rmtoll TRISE        TRISE         LL_I2C_SetRiseTime
 669:Drivers/STM32F1xx_HAL_Driver/Inc/stm32f1xx_ll_i2c.h ****   * @param  I2Cx I2C Instance.
 670:Drivers/STM32F1xx_HAL_Driver/Inc/stm32f1xx_ll_i2c.h ****   * @param  RiseTime This parameter must be a value between Min_Data=0x02 and Max_Data=0x3F.
 671:Drivers/STM32F1xx_HAL_Driver/Inc/stm32f1xx_ll_i2c.h ****   * @retval None
 672:Drivers/STM32F1xx_HAL_Driver/Inc/stm32f1xx_ll_i2c.h ****   */
 673:Drivers/STM32F1xx_HAL_Driver/Inc/stm32f1xx_ll_i2c.h **** __STATIC_INLINE void LL_I2C_SetRiseTime(I2C_TypeDef *I2Cx, uint32_t RiseTime)
 674:Drivers/STM32F1xx_HAL_Driver/Inc/stm32f1xx_ll_i2c.h **** {
 675:Drivers/STM32F1xx_HAL_Driver/Inc/stm32f1xx_ll_i2c.h ****   MODIFY_REG(I2Cx->TRISE, I2C_TRISE_TRISE, RiseTime);
 676:Drivers/STM32F1xx_HAL_Driver/Inc/stm32f1xx_ll_i2c.h **** }
 677:Drivers/STM32F1xx_HAL_Driver/Inc/stm32f1xx_ll_i2c.h **** 
 678:Drivers/STM32F1xx_HAL_Driver/Inc/stm32f1xx_ll_i2c.h **** /**
 679:Drivers/STM32F1xx_HAL_Driver/Inc/stm32f1xx_ll_i2c.h ****   * @brief  Get the SCL, SDA rising time.
 680:Drivers/STM32F1xx_HAL_Driver/Inc/stm32f1xx_ll_i2c.h ****   * @rmtoll TRISE        TRISE         LL_I2C_GetRiseTime
 681:Drivers/STM32F1xx_HAL_Driver/Inc/stm32f1xx_ll_i2c.h ****   * @param  I2Cx I2C Instance.
 682:Drivers/STM32F1xx_HAL_Driver/Inc/stm32f1xx_ll_i2c.h ****   * @retval Value between Min_Data=0x02 and Max_Data=0x3F
 683:Drivers/STM32F1xx_HAL_Driver/Inc/stm32f1xx_ll_i2c.h ****   */
 684:Drivers/STM32F1xx_HAL_Driver/Inc/stm32f1xx_ll_i2c.h **** __STATIC_INLINE uint32_t LL_I2C_GetRiseTime(I2C_TypeDef *I2Cx)
 685:Drivers/STM32F1xx_HAL_Driver/Inc/stm32f1xx_ll_i2c.h **** {
 686:Drivers/STM32F1xx_HAL_Driver/Inc/stm32f1xx_ll_i2c.h ****   return (uint32_t)(READ_BIT(I2Cx->TRISE, I2C_TRISE_TRISE));
 687:Drivers/STM32F1xx_HAL_Driver/Inc/stm32f1xx_ll_i2c.h **** }
 688:Drivers/STM32F1xx_HAL_Driver/Inc/stm32f1xx_ll_i2c.h **** 
 689:Drivers/STM32F1xx_HAL_Driver/Inc/stm32f1xx_ll_i2c.h **** /**
 690:Drivers/STM32F1xx_HAL_Driver/Inc/stm32f1xx_ll_i2c.h ****   * @brief  Configure the SCL high and low period.
 691:Drivers/STM32F1xx_HAL_Driver/Inc/stm32f1xx_ll_i2c.h ****   * @note   This bit can only be programmed when the I2C is disabled (PE = 0).
 692:Drivers/STM32F1xx_HAL_Driver/Inc/stm32f1xx_ll_i2c.h ****   * @rmtoll CCR          CCR           LL_I2C_SetClockPeriod
 693:Drivers/STM32F1xx_HAL_Driver/Inc/stm32f1xx_ll_i2c.h ****   * @param  I2Cx I2C Instance.
 694:Drivers/STM32F1xx_HAL_Driver/Inc/stm32f1xx_ll_i2c.h ****   * @param  ClockPeriod This parameter must be a value between Min_Data=0x004 and Max_Data=0xFFF, e
 695:Drivers/STM32F1xx_HAL_Driver/Inc/stm32f1xx_ll_i2c.h ****   * @retval None
 696:Drivers/STM32F1xx_HAL_Driver/Inc/stm32f1xx_ll_i2c.h ****   */
 697:Drivers/STM32F1xx_HAL_Driver/Inc/stm32f1xx_ll_i2c.h **** __STATIC_INLINE void LL_I2C_SetClockPeriod(I2C_TypeDef *I2Cx, uint32_t ClockPeriod)
 698:Drivers/STM32F1xx_HAL_Driver/Inc/stm32f1xx_ll_i2c.h **** {
 699:Drivers/STM32F1xx_HAL_Driver/Inc/stm32f1xx_ll_i2c.h ****   MODIFY_REG(I2Cx->CCR, I2C_CCR_CCR, ClockPeriod);
 700:Drivers/STM32F1xx_HAL_Driver/Inc/stm32f1xx_ll_i2c.h **** }
 701:Drivers/STM32F1xx_HAL_Driver/Inc/stm32f1xx_ll_i2c.h **** 
 702:Drivers/STM32F1xx_HAL_Driver/Inc/stm32f1xx_ll_i2c.h **** /**
ARM GAS  /tmp/ccSSjYDs.s 			page 32


 703:Drivers/STM32F1xx_HAL_Driver/Inc/stm32f1xx_ll_i2c.h ****   * @brief  Get the SCL high and low period.
 704:Drivers/STM32F1xx_HAL_Driver/Inc/stm32f1xx_ll_i2c.h ****   * @rmtoll CCR          CCR           LL_I2C_GetClockPeriod
 705:Drivers/STM32F1xx_HAL_Driver/Inc/stm32f1xx_ll_i2c.h ****   * @param  I2Cx I2C Instance.
 706:Drivers/STM32F1xx_HAL_Driver/Inc/stm32f1xx_ll_i2c.h ****   * @retval Value between Min_Data=0x004 and Max_Data=0xFFF, except in FAST DUTY mode where Min_Dat
 707:Drivers/STM32F1xx_HAL_Driver/Inc/stm32f1xx_ll_i2c.h ****   */
 708:Drivers/STM32F1xx_HAL_Driver/Inc/stm32f1xx_ll_i2c.h **** __STATIC_INLINE uint32_t LL_I2C_GetClockPeriod(I2C_TypeDef *I2Cx)
 709:Drivers/STM32F1xx_HAL_Driver/Inc/stm32f1xx_ll_i2c.h **** {
 710:Drivers/STM32F1xx_HAL_Driver/Inc/stm32f1xx_ll_i2c.h ****   return (uint32_t)(READ_BIT(I2Cx->CCR, I2C_CCR_CCR));
 711:Drivers/STM32F1xx_HAL_Driver/Inc/stm32f1xx_ll_i2c.h **** }
 712:Drivers/STM32F1xx_HAL_Driver/Inc/stm32f1xx_ll_i2c.h **** 
 713:Drivers/STM32F1xx_HAL_Driver/Inc/stm32f1xx_ll_i2c.h **** /**
 714:Drivers/STM32F1xx_HAL_Driver/Inc/stm32f1xx_ll_i2c.h ****   * @brief  Configure the SCL speed.
 715:Drivers/STM32F1xx_HAL_Driver/Inc/stm32f1xx_ll_i2c.h ****   * @note   This bit can only be programmed when the I2C is disabled (PE = 0).
 716:Drivers/STM32F1xx_HAL_Driver/Inc/stm32f1xx_ll_i2c.h ****   * @rmtoll CR2          FREQ          LL_I2C_ConfigSpeed\n
 717:Drivers/STM32F1xx_HAL_Driver/Inc/stm32f1xx_ll_i2c.h ****   *         TRISE        TRISE         LL_I2C_ConfigSpeed\n
 718:Drivers/STM32F1xx_HAL_Driver/Inc/stm32f1xx_ll_i2c.h ****   *         CCR          FS            LL_I2C_ConfigSpeed\n
 719:Drivers/STM32F1xx_HAL_Driver/Inc/stm32f1xx_ll_i2c.h ****   *         CCR          DUTY          LL_I2C_ConfigSpeed\n
 720:Drivers/STM32F1xx_HAL_Driver/Inc/stm32f1xx_ll_i2c.h ****   *         CCR          CCR           LL_I2C_ConfigSpeed
 721:Drivers/STM32F1xx_HAL_Driver/Inc/stm32f1xx_ll_i2c.h ****   * @param  I2Cx I2C Instance.
 722:Drivers/STM32F1xx_HAL_Driver/Inc/stm32f1xx_ll_i2c.h ****   * @param  PeriphClock Peripheral Clock (in Hz)
 723:Drivers/STM32F1xx_HAL_Driver/Inc/stm32f1xx_ll_i2c.h ****   * @param  ClockSpeed This parameter must be a value lower than 400kHz (in Hz).
 724:Drivers/STM32F1xx_HAL_Driver/Inc/stm32f1xx_ll_i2c.h ****   * @param  DutyCycle This parameter can be one of the following values:
 725:Drivers/STM32F1xx_HAL_Driver/Inc/stm32f1xx_ll_i2c.h ****   *         @arg @ref LL_I2C_DUTYCYCLE_2
 726:Drivers/STM32F1xx_HAL_Driver/Inc/stm32f1xx_ll_i2c.h ****   *         @arg @ref LL_I2C_DUTYCYCLE_16_9
 727:Drivers/STM32F1xx_HAL_Driver/Inc/stm32f1xx_ll_i2c.h ****   * @retval None
 728:Drivers/STM32F1xx_HAL_Driver/Inc/stm32f1xx_ll_i2c.h ****   */
 729:Drivers/STM32F1xx_HAL_Driver/Inc/stm32f1xx_ll_i2c.h **** __STATIC_INLINE void LL_I2C_ConfigSpeed(I2C_TypeDef *I2Cx, uint32_t PeriphClock, uint32_t ClockSpee
 197              		.loc 3 729 22 view .LVU46
 198              	.LBB47:
 730:Drivers/STM32F1xx_HAL_Driver/Inc/stm32f1xx_ll_i2c.h ****                                         uint32_t DutyCycle)
 731:Drivers/STM32F1xx_HAL_Driver/Inc/stm32f1xx_ll_i2c.h **** {
 732:Drivers/STM32F1xx_HAL_Driver/Inc/stm32f1xx_ll_i2c.h ****   uint32_t freqrange = 0x0U;
 199              		.loc 3 732 3 view .LVU47
 733:Drivers/STM32F1xx_HAL_Driver/Inc/stm32f1xx_ll_i2c.h ****   uint32_t clockconfig = 0x0U;
 200              		.loc 3 733 3 view .LVU48
 734:Drivers/STM32F1xx_HAL_Driver/Inc/stm32f1xx_ll_i2c.h **** 
 735:Drivers/STM32F1xx_HAL_Driver/Inc/stm32f1xx_ll_i2c.h ****   /* Compute frequency range */
 736:Drivers/STM32F1xx_HAL_Driver/Inc/stm32f1xx_ll_i2c.h ****   freqrange = __LL_I2C_FREQ_HZ_TO_MHZ(PeriphClock);
 201              		.loc 3 736 3 view .LVU49
 202              		.loc 3 736 13 is_stmt 0 view .LVU50
 203 001c 3648     		ldr	r0, .L19
 204 001e A0FB021C 		umull	r1, ip, r0, r2
 205 0022 4FEA9C41 		lsr	r1, ip, #18
 206              	.LVL14:
 737:Drivers/STM32F1xx_HAL_Driver/Inc/stm32f1xx_ll_i2c.h **** 
 738:Drivers/STM32F1xx_HAL_Driver/Inc/stm32f1xx_ll_i2c.h ****   /* Configure I2Cx: Frequency range register */
 739:Drivers/STM32F1xx_HAL_Driver/Inc/stm32f1xx_ll_i2c.h ****   MODIFY_REG(I2Cx->CR2, I2C_CR2_FREQ, freqrange);
 207              		.loc 3 739 3 is_stmt 1 view .LVU51
 208 0026 6068     		ldr	r0, [r4, #4]
 209 0028 20F03F00 		bic	r0, r0, #63
 210 002c 40EA9C40 		orr	r0, r0, ip, lsr #18
 211 0030 6060     		str	r0, [r4, #4]
 740:Drivers/STM32F1xx_HAL_Driver/Inc/stm32f1xx_ll_i2c.h **** 
 741:Drivers/STM32F1xx_HAL_Driver/Inc/stm32f1xx_ll_i2c.h ****   /* Configure I2Cx: Rise Time register */
 742:Drivers/STM32F1xx_HAL_Driver/Inc/stm32f1xx_ll_i2c.h ****   MODIFY_REG(I2Cx->TRISE, I2C_TRISE_TRISE, __LL_I2C_RISE_TIME(freqrange, ClockSpeed));
 212              		.loc 3 742 3 view .LVU52
 213 0032 206A     		ldr	r0, [r4, #32]
ARM GAS  /tmp/ccSSjYDs.s 			page 33


 214 0034 20F03F00 		bic	r0, r0, #63
 215 0038 304F     		ldr	r7, .L19+4
 216 003a BB42     		cmp	r3, r7
 217 003c 37D8     		bhi	.L10
 218 003e 0131     		adds	r1, r1, #1
 219              	.LVL15:
 220              	.L11:
 221              		.loc 3 742 3 is_stmt 0 view .LVU53
 222 0040 0143     		orrs	r1, r1, r0
 223 0042 2162     		str	r1, [r4, #32]
 743:Drivers/STM32F1xx_HAL_Driver/Inc/stm32f1xx_ll_i2c.h **** 
 744:Drivers/STM32F1xx_HAL_Driver/Inc/stm32f1xx_ll_i2c.h ****   /* Configure Speed mode, Duty Cycle and Clock control register value */
 745:Drivers/STM32F1xx_HAL_Driver/Inc/stm32f1xx_ll_i2c.h ****   if (ClockSpeed > LL_I2C_MAX_SPEED_STANDARD)
 224              		.loc 3 745 3 is_stmt 1 view .LVU54
 225              		.loc 3 745 6 is_stmt 0 view .LVU55
 226 0044 2D49     		ldr	r1, .L19+4
 227 0046 8B42     		cmp	r3, r1
 228 0048 4DD9     		bls	.L12
 746:Drivers/STM32F1xx_HAL_Driver/Inc/stm32f1xx_ll_i2c.h ****   {
 747:Drivers/STM32F1xx_HAL_Driver/Inc/stm32f1xx_ll_i2c.h ****     /* Set Speed mode at fast and duty cycle for Clock Speed request in fast clock range */
 748:Drivers/STM32F1xx_HAL_Driver/Inc/stm32f1xx_ll_i2c.h ****     clockconfig = LL_I2C_CLOCK_SPEED_FAST_MODE                                          | \
 229              		.loc 3 748 5 is_stmt 1 view .LVU56
 230              		.loc 3 748 89 is_stmt 0 view .LVU57
 231 004a 002E     		cmp	r6, #0
 232 004c 39D1     		bne	.L13
 749:Drivers/STM32F1xx_HAL_Driver/Inc/stm32f1xx_ll_i2c.h ****                   __LL_I2C_SPEED_FAST_TO_CCR(PeriphClock, ClockSpeed, DutyCycle)        | \
 233              		.loc 3 749 19 view .LVU58
 234 004e 03EB4303 		add	r3, r3, r3, lsl #1
 235              	.LVL16:
 236              		.loc 3 749 19 view .LVU59
 237 0052 B2FBF3F2 		udiv	r2, r2, r3
 238              	.LVL17:
 239              		.loc 3 749 19 view .LVU60
 240 0056 C2F30B03 		ubfx	r3, r2, #0, #12
 748:Drivers/STM32F1xx_HAL_Driver/Inc/stm32f1xx_ll_i2c.h ****                   __LL_I2C_SPEED_FAST_TO_CCR(PeriphClock, ClockSpeed, DutyCycle)        | \
 241              		.loc 3 748 89 view .LVU61
 242 005a 002B     		cmp	r3, #0
 243 005c 3DD0     		beq	.L16
 244 005e 42F40042 		orr	r2, r2, #32768
 245              	.L14:
 748:Drivers/STM32F1xx_HAL_Driver/Inc/stm32f1xx_ll_i2c.h ****                   __LL_I2C_SPEED_FAST_TO_CCR(PeriphClock, ClockSpeed, DutyCycle)        | \
 246              		.loc 3 748 17 view .LVU62
 247 0062 46EA0203 		orr	r3, r6, r2
 248              	.LVL18:
 249              	.L15:
 750:Drivers/STM32F1xx_HAL_Driver/Inc/stm32f1xx_ll_i2c.h ****                   DutyCycle;
 751:Drivers/STM32F1xx_HAL_Driver/Inc/stm32f1xx_ll_i2c.h ****   }
 752:Drivers/STM32F1xx_HAL_Driver/Inc/stm32f1xx_ll_i2c.h ****   else
 753:Drivers/STM32F1xx_HAL_Driver/Inc/stm32f1xx_ll_i2c.h ****   {
 754:Drivers/STM32F1xx_HAL_Driver/Inc/stm32f1xx_ll_i2c.h ****     /* Set Speed mode at standard for Clock Speed request in standard clock range */
 755:Drivers/STM32F1xx_HAL_Driver/Inc/stm32f1xx_ll_i2c.h ****     clockconfig = LL_I2C_CLOCK_SPEED_STANDARD_MODE                                      | \
 756:Drivers/STM32F1xx_HAL_Driver/Inc/stm32f1xx_ll_i2c.h ****                   __LL_I2C_SPEED_STANDARD_TO_CCR(PeriphClock, ClockSpeed);
 757:Drivers/STM32F1xx_HAL_Driver/Inc/stm32f1xx_ll_i2c.h ****   }
 758:Drivers/STM32F1xx_HAL_Driver/Inc/stm32f1xx_ll_i2c.h **** 
 759:Drivers/STM32F1xx_HAL_Driver/Inc/stm32f1xx_ll_i2c.h ****   /* Configure I2Cx: Clock control register */
 760:Drivers/STM32F1xx_HAL_Driver/Inc/stm32f1xx_ll_i2c.h ****   MODIFY_REG(I2Cx->CCR, (I2C_CCR_FS | I2C_CCR_DUTY | I2C_CCR_CCR), clockconfig);
 250              		.loc 3 760 3 is_stmt 1 view .LVU63
ARM GAS  /tmp/ccSSjYDs.s 			page 34


 251 0066 E269     		ldr	r2, [r4, #28]
 252 0068 22F44F42 		bic	r2, r2, #52992
 253 006c 22F0FF02 		bic	r2, r2, #255
 254 0070 1A43     		orrs	r2, r2, r3
 255 0072 E261     		str	r2, [r4, #28]
 256              	.LVL19:
 257              		.loc 3 760 3 is_stmt 0 view .LVU64
 258              	.LBE47:
 259              	.LBE46:
 158:Drivers/STM32F1xx_HAL_Driver/Src/stm32f1xx_ll_i2c.c **** 
 159:Drivers/STM32F1xx_HAL_Driver/Src/stm32f1xx_ll_i2c.c ****   /*---------------------------- I2Cx OAR1 Configuration -----------------------
 160:Drivers/STM32F1xx_HAL_Driver/Src/stm32f1xx_ll_i2c.c ****    * Disable, Configure and Enable I2Cx device own address 1 with parameters :
 161:Drivers/STM32F1xx_HAL_Driver/Src/stm32f1xx_ll_i2c.c ****    * - OwnAddress1:  I2C_OAR1_ADD[9:8], I2C_OAR1_ADD[7:1] and I2C_OAR1_ADD0 bits
 162:Drivers/STM32F1xx_HAL_Driver/Src/stm32f1xx_ll_i2c.c ****    * - OwnAddrSize:  I2C_OAR1_ADDMODE bit
 163:Drivers/STM32F1xx_HAL_Driver/Src/stm32f1xx_ll_i2c.c ****    */
 164:Drivers/STM32F1xx_HAL_Driver/Src/stm32f1xx_ll_i2c.c ****   LL_I2C_SetOwnAddress1(I2Cx, I2C_InitStruct->OwnAddress1, I2C_InitStruct->OwnAddrSize);
 260              		.loc 1 164 3 is_stmt 1 view .LVU65
 261 0074 EA68     		ldr	r2, [r5, #12]
 262 0076 6969     		ldr	r1, [r5, #20]
 263              	.LVL20:
 264              	.LBB49:
 265              	.LBI49:
 537:Drivers/STM32F1xx_HAL_Driver/Inc/stm32f1xx_ll_i2c.h **** {
 266              		.loc 3 537 22 view .LVU66
 267              	.LBB50:
 539:Drivers/STM32F1xx_HAL_Driver/Inc/stm32f1xx_ll_i2c.h **** }
 268              		.loc 3 539 3 view .LVU67
 269 0078 A368     		ldr	r3, [r4, #8]
 270 007a 23F40343 		bic	r3, r3, #33536
 271 007e 23F0FF03 		bic	r3, r3, #255
 272 0082 0A43     		orrs	r2, r2, r1
 273              	.LVL21:
 539:Drivers/STM32F1xx_HAL_Driver/Inc/stm32f1xx_ll_i2c.h **** }
 274              		.loc 3 539 3 is_stmt 0 view .LVU68
 275 0084 1343     		orrs	r3, r3, r2
 276 0086 A360     		str	r3, [r4, #8]
 277              	.LVL22:
 539:Drivers/STM32F1xx_HAL_Driver/Inc/stm32f1xx_ll_i2c.h **** }
 278              		.loc 3 539 3 view .LVU69
 279              	.LBE50:
 280              	.LBE49:
 165:Drivers/STM32F1xx_HAL_Driver/Src/stm32f1xx_ll_i2c.c **** 
 166:Drivers/STM32F1xx_HAL_Driver/Src/stm32f1xx_ll_i2c.c ****   /*---------------------------- I2Cx MODE Configuration -----------------------
 167:Drivers/STM32F1xx_HAL_Driver/Src/stm32f1xx_ll_i2c.c ****   * Configure I2Cx peripheral mode with parameter :
 168:Drivers/STM32F1xx_HAL_Driver/Src/stm32f1xx_ll_i2c.c ****    * - PeripheralMode: I2C_CR1_SMBUS, I2C_CR1_SMBTYPE and I2C_CR1_ENARP bits
 169:Drivers/STM32F1xx_HAL_Driver/Src/stm32f1xx_ll_i2c.c ****    */
 170:Drivers/STM32F1xx_HAL_Driver/Src/stm32f1xx_ll_i2c.c ****   LL_I2C_SetMode(I2Cx, I2C_InitStruct->PeripheralMode);
 281              		.loc 1 170 3 is_stmt 1 view .LVU70
 282 0088 2B68     		ldr	r3, [r5]
 283              	.LVL23:
 284              	.LBB51:
 285              	.LBI51:
 761:Drivers/STM32F1xx_HAL_Driver/Inc/stm32f1xx_ll_i2c.h **** }
 762:Drivers/STM32F1xx_HAL_Driver/Inc/stm32f1xx_ll_i2c.h **** 
 763:Drivers/STM32F1xx_HAL_Driver/Inc/stm32f1xx_ll_i2c.h **** /**
 764:Drivers/STM32F1xx_HAL_Driver/Inc/stm32f1xx_ll_i2c.h ****   * @brief  Configure peripheral mode.
 765:Drivers/STM32F1xx_HAL_Driver/Inc/stm32f1xx_ll_i2c.h ****   * @note   Macro @ref IS_SMBUS_ALL_INSTANCE(I2Cx) can be used to check whether or not
ARM GAS  /tmp/ccSSjYDs.s 			page 35


 766:Drivers/STM32F1xx_HAL_Driver/Inc/stm32f1xx_ll_i2c.h ****   *         SMBus feature is supported by the I2Cx Instance.
 767:Drivers/STM32F1xx_HAL_Driver/Inc/stm32f1xx_ll_i2c.h ****   * @rmtoll CR1          SMBUS         LL_I2C_SetMode\n
 768:Drivers/STM32F1xx_HAL_Driver/Inc/stm32f1xx_ll_i2c.h ****   *         CR1          SMBTYPE       LL_I2C_SetMode\n
 769:Drivers/STM32F1xx_HAL_Driver/Inc/stm32f1xx_ll_i2c.h ****   *         CR1          ENARP         LL_I2C_SetMode
 770:Drivers/STM32F1xx_HAL_Driver/Inc/stm32f1xx_ll_i2c.h ****   * @param  I2Cx I2C Instance.
 771:Drivers/STM32F1xx_HAL_Driver/Inc/stm32f1xx_ll_i2c.h ****   * @param  PeripheralMode This parameter can be one of the following values:
 772:Drivers/STM32F1xx_HAL_Driver/Inc/stm32f1xx_ll_i2c.h ****   *         @arg @ref LL_I2C_MODE_I2C
 773:Drivers/STM32F1xx_HAL_Driver/Inc/stm32f1xx_ll_i2c.h ****   *         @arg @ref LL_I2C_MODE_SMBUS_HOST
 774:Drivers/STM32F1xx_HAL_Driver/Inc/stm32f1xx_ll_i2c.h ****   *         @arg @ref LL_I2C_MODE_SMBUS_DEVICE
 775:Drivers/STM32F1xx_HAL_Driver/Inc/stm32f1xx_ll_i2c.h ****   *         @arg @ref LL_I2C_MODE_SMBUS_DEVICE_ARP
 776:Drivers/STM32F1xx_HAL_Driver/Inc/stm32f1xx_ll_i2c.h ****   * @retval None
 777:Drivers/STM32F1xx_HAL_Driver/Inc/stm32f1xx_ll_i2c.h ****   */
 778:Drivers/STM32F1xx_HAL_Driver/Inc/stm32f1xx_ll_i2c.h **** __STATIC_INLINE void LL_I2C_SetMode(I2C_TypeDef *I2Cx, uint32_t PeripheralMode)
 286              		.loc 3 778 22 view .LVU71
 287              	.LBB52:
 779:Drivers/STM32F1xx_HAL_Driver/Inc/stm32f1xx_ll_i2c.h **** {
 780:Drivers/STM32F1xx_HAL_Driver/Inc/stm32f1xx_ll_i2c.h ****   MODIFY_REG(I2Cx->CR1, I2C_CR1_SMBUS | I2C_CR1_SMBTYPE | I2C_CR1_ENARP, PeripheralMode);
 288              		.loc 3 780 3 view .LVU72
 289 008a 2268     		ldr	r2, [r4]
 290 008c 22F01A02 		bic	r2, r2, #26
 291 0090 1343     		orrs	r3, r3, r2
 292              	.LVL24:
 293              		.loc 3 780 3 is_stmt 0 view .LVU73
 294 0092 2360     		str	r3, [r4]
 295              	.LVL25:
 296              		.loc 3 780 3 view .LVU74
 297              	.LBE52:
 298              	.LBE51:
 171:Drivers/STM32F1xx_HAL_Driver/Src/stm32f1xx_ll_i2c.c **** 
 172:Drivers/STM32F1xx_HAL_Driver/Src/stm32f1xx_ll_i2c.c ****   /* Enable the selected I2Cx Peripheral */
 173:Drivers/STM32F1xx_HAL_Driver/Src/stm32f1xx_ll_i2c.c ****   LL_I2C_Enable(I2Cx);
 299              		.loc 1 173 3 is_stmt 1 view .LVU75
 300              	.LBB53:
 301              	.LBI53:
 349:Drivers/STM32F1xx_HAL_Driver/Inc/stm32f1xx_ll_i2c.h **** {
 302              		.loc 3 349 22 view .LVU76
 303              	.LBB54:
 351:Drivers/STM32F1xx_HAL_Driver/Inc/stm32f1xx_ll_i2c.h **** }
 304              		.loc 3 351 3 view .LVU77
 305 0094 2368     		ldr	r3, [r4]
 306 0096 43F00103 		orr	r3, r3, #1
 307 009a 2360     		str	r3, [r4]
 308              	.LVL26:
 351:Drivers/STM32F1xx_HAL_Driver/Inc/stm32f1xx_ll_i2c.h **** }
 309              		.loc 3 351 3 is_stmt 0 view .LVU78
 310              	.LBE54:
 311              	.LBE53:
 174:Drivers/STM32F1xx_HAL_Driver/Src/stm32f1xx_ll_i2c.c **** 
 175:Drivers/STM32F1xx_HAL_Driver/Src/stm32f1xx_ll_i2c.c ****   /*---------------------------- I2Cx CR2 Configuration ------------------------
 176:Drivers/STM32F1xx_HAL_Driver/Src/stm32f1xx_ll_i2c.c ****    * Configure the ACKnowledge or Non ACKnowledge condition
 177:Drivers/STM32F1xx_HAL_Driver/Src/stm32f1xx_ll_i2c.c ****    * after the address receive match code or next received byte with parameter :
 178:Drivers/STM32F1xx_HAL_Driver/Src/stm32f1xx_ll_i2c.c ****    * - TypeAcknowledge: I2C_CR2_NACK bit
 179:Drivers/STM32F1xx_HAL_Driver/Src/stm32f1xx_ll_i2c.c ****    */
 180:Drivers/STM32F1xx_HAL_Driver/Src/stm32f1xx_ll_i2c.c ****   LL_I2C_AcknowledgeNextData(I2Cx, I2C_InitStruct->TypeAcknowledge);
 312              		.loc 1 180 3 is_stmt 1 view .LVU79
 313 009c 2B69     		ldr	r3, [r5, #16]
 314              	.LVL27:
ARM GAS  /tmp/ccSSjYDs.s 			page 36


 315              	.LBB55:
 316              	.LBI55:
 781:Drivers/STM32F1xx_HAL_Driver/Inc/stm32f1xx_ll_i2c.h **** }
 782:Drivers/STM32F1xx_HAL_Driver/Inc/stm32f1xx_ll_i2c.h **** 
 783:Drivers/STM32F1xx_HAL_Driver/Inc/stm32f1xx_ll_i2c.h **** /**
 784:Drivers/STM32F1xx_HAL_Driver/Inc/stm32f1xx_ll_i2c.h ****   * @brief  Get peripheral mode.
 785:Drivers/STM32F1xx_HAL_Driver/Inc/stm32f1xx_ll_i2c.h ****   * @note   Macro @ref IS_SMBUS_ALL_INSTANCE(I2Cx) can be used to check whether or not
 786:Drivers/STM32F1xx_HAL_Driver/Inc/stm32f1xx_ll_i2c.h ****   *         SMBus feature is supported by the I2Cx Instance.
 787:Drivers/STM32F1xx_HAL_Driver/Inc/stm32f1xx_ll_i2c.h ****   * @rmtoll CR1          SMBUS         LL_I2C_GetMode\n
 788:Drivers/STM32F1xx_HAL_Driver/Inc/stm32f1xx_ll_i2c.h ****   *         CR1          SMBTYPE       LL_I2C_GetMode\n
 789:Drivers/STM32F1xx_HAL_Driver/Inc/stm32f1xx_ll_i2c.h ****   *         CR1          ENARP         LL_I2C_GetMode
 790:Drivers/STM32F1xx_HAL_Driver/Inc/stm32f1xx_ll_i2c.h ****   * @param  I2Cx I2C Instance.
 791:Drivers/STM32F1xx_HAL_Driver/Inc/stm32f1xx_ll_i2c.h ****   * @retval Returned value can be one of the following values:
 792:Drivers/STM32F1xx_HAL_Driver/Inc/stm32f1xx_ll_i2c.h ****   *         @arg @ref LL_I2C_MODE_I2C
 793:Drivers/STM32F1xx_HAL_Driver/Inc/stm32f1xx_ll_i2c.h ****   *         @arg @ref LL_I2C_MODE_SMBUS_HOST
 794:Drivers/STM32F1xx_HAL_Driver/Inc/stm32f1xx_ll_i2c.h ****   *         @arg @ref LL_I2C_MODE_SMBUS_DEVICE
 795:Drivers/STM32F1xx_HAL_Driver/Inc/stm32f1xx_ll_i2c.h ****   *         @arg @ref LL_I2C_MODE_SMBUS_DEVICE_ARP
 796:Drivers/STM32F1xx_HAL_Driver/Inc/stm32f1xx_ll_i2c.h ****   */
 797:Drivers/STM32F1xx_HAL_Driver/Inc/stm32f1xx_ll_i2c.h **** __STATIC_INLINE uint32_t LL_I2C_GetMode(I2C_TypeDef *I2Cx)
 798:Drivers/STM32F1xx_HAL_Driver/Inc/stm32f1xx_ll_i2c.h **** {
 799:Drivers/STM32F1xx_HAL_Driver/Inc/stm32f1xx_ll_i2c.h ****   return (uint32_t)(READ_BIT(I2Cx->CR1, I2C_CR1_SMBUS | I2C_CR1_SMBTYPE | I2C_CR1_ENARP));
 800:Drivers/STM32F1xx_HAL_Driver/Inc/stm32f1xx_ll_i2c.h **** }
 801:Drivers/STM32F1xx_HAL_Driver/Inc/stm32f1xx_ll_i2c.h **** 
 802:Drivers/STM32F1xx_HAL_Driver/Inc/stm32f1xx_ll_i2c.h **** /**
 803:Drivers/STM32F1xx_HAL_Driver/Inc/stm32f1xx_ll_i2c.h ****   * @brief  Enable SMBus alert (Host or Device mode)
 804:Drivers/STM32F1xx_HAL_Driver/Inc/stm32f1xx_ll_i2c.h ****   * @note   Macro @ref IS_SMBUS_ALL_INSTANCE(I2Cx) can be used to check whether or not
 805:Drivers/STM32F1xx_HAL_Driver/Inc/stm32f1xx_ll_i2c.h ****   *         SMBus feature is supported by the I2Cx Instance.
 806:Drivers/STM32F1xx_HAL_Driver/Inc/stm32f1xx_ll_i2c.h ****   * @note   SMBus Device mode:
 807:Drivers/STM32F1xx_HAL_Driver/Inc/stm32f1xx_ll_i2c.h ****   *         - SMBus Alert pin is drived low and
 808:Drivers/STM32F1xx_HAL_Driver/Inc/stm32f1xx_ll_i2c.h ****   *           Alert Response Address Header acknowledge is enabled.
 809:Drivers/STM32F1xx_HAL_Driver/Inc/stm32f1xx_ll_i2c.h ****   *         SMBus Host mode:
 810:Drivers/STM32F1xx_HAL_Driver/Inc/stm32f1xx_ll_i2c.h ****   *         - SMBus Alert pin management is supported.
 811:Drivers/STM32F1xx_HAL_Driver/Inc/stm32f1xx_ll_i2c.h ****   * @rmtoll CR1          ALERT         LL_I2C_EnableSMBusAlert
 812:Drivers/STM32F1xx_HAL_Driver/Inc/stm32f1xx_ll_i2c.h ****   * @param  I2Cx I2C Instance.
 813:Drivers/STM32F1xx_HAL_Driver/Inc/stm32f1xx_ll_i2c.h ****   * @retval None
 814:Drivers/STM32F1xx_HAL_Driver/Inc/stm32f1xx_ll_i2c.h ****   */
 815:Drivers/STM32F1xx_HAL_Driver/Inc/stm32f1xx_ll_i2c.h **** __STATIC_INLINE void LL_I2C_EnableSMBusAlert(I2C_TypeDef *I2Cx)
 816:Drivers/STM32F1xx_HAL_Driver/Inc/stm32f1xx_ll_i2c.h **** {
 817:Drivers/STM32F1xx_HAL_Driver/Inc/stm32f1xx_ll_i2c.h ****   SET_BIT(I2Cx->CR1, I2C_CR1_ALERT);
 818:Drivers/STM32F1xx_HAL_Driver/Inc/stm32f1xx_ll_i2c.h **** }
 819:Drivers/STM32F1xx_HAL_Driver/Inc/stm32f1xx_ll_i2c.h **** 
 820:Drivers/STM32F1xx_HAL_Driver/Inc/stm32f1xx_ll_i2c.h **** /**
 821:Drivers/STM32F1xx_HAL_Driver/Inc/stm32f1xx_ll_i2c.h ****   * @brief  Disable SMBus alert (Host or Device mode)
 822:Drivers/STM32F1xx_HAL_Driver/Inc/stm32f1xx_ll_i2c.h ****   * @note   Macro @ref IS_SMBUS_ALL_INSTANCE(I2Cx) can be used to check whether or not
 823:Drivers/STM32F1xx_HAL_Driver/Inc/stm32f1xx_ll_i2c.h ****   *         SMBus feature is supported by the I2Cx Instance.
 824:Drivers/STM32F1xx_HAL_Driver/Inc/stm32f1xx_ll_i2c.h ****   * @note   SMBus Device mode:
 825:Drivers/STM32F1xx_HAL_Driver/Inc/stm32f1xx_ll_i2c.h ****   *         - SMBus Alert pin is not drived (can be used as a standard GPIO) and
 826:Drivers/STM32F1xx_HAL_Driver/Inc/stm32f1xx_ll_i2c.h ****   *           Alert Response Address Header acknowledge is disabled.
 827:Drivers/STM32F1xx_HAL_Driver/Inc/stm32f1xx_ll_i2c.h ****   *         SMBus Host mode:
 828:Drivers/STM32F1xx_HAL_Driver/Inc/stm32f1xx_ll_i2c.h ****   *         - SMBus Alert pin management is not supported.
 829:Drivers/STM32F1xx_HAL_Driver/Inc/stm32f1xx_ll_i2c.h ****   * @rmtoll CR1          ALERT         LL_I2C_DisableSMBusAlert
 830:Drivers/STM32F1xx_HAL_Driver/Inc/stm32f1xx_ll_i2c.h ****   * @param  I2Cx I2C Instance.
 831:Drivers/STM32F1xx_HAL_Driver/Inc/stm32f1xx_ll_i2c.h ****   * @retval None
 832:Drivers/STM32F1xx_HAL_Driver/Inc/stm32f1xx_ll_i2c.h ****   */
 833:Drivers/STM32F1xx_HAL_Driver/Inc/stm32f1xx_ll_i2c.h **** __STATIC_INLINE void LL_I2C_DisableSMBusAlert(I2C_TypeDef *I2Cx)
 834:Drivers/STM32F1xx_HAL_Driver/Inc/stm32f1xx_ll_i2c.h **** {
 835:Drivers/STM32F1xx_HAL_Driver/Inc/stm32f1xx_ll_i2c.h ****   CLEAR_BIT(I2Cx->CR1, I2C_CR1_ALERT);
ARM GAS  /tmp/ccSSjYDs.s 			page 37


 836:Drivers/STM32F1xx_HAL_Driver/Inc/stm32f1xx_ll_i2c.h **** }
 837:Drivers/STM32F1xx_HAL_Driver/Inc/stm32f1xx_ll_i2c.h **** 
 838:Drivers/STM32F1xx_HAL_Driver/Inc/stm32f1xx_ll_i2c.h **** /**
 839:Drivers/STM32F1xx_HAL_Driver/Inc/stm32f1xx_ll_i2c.h ****   * @brief  Check if SMBus alert (Host or Device mode) is enabled or disabled.
 840:Drivers/STM32F1xx_HAL_Driver/Inc/stm32f1xx_ll_i2c.h ****   * @note   Macro @ref IS_SMBUS_ALL_INSTANCE(I2Cx) can be used to check whether or not
 841:Drivers/STM32F1xx_HAL_Driver/Inc/stm32f1xx_ll_i2c.h ****   *         SMBus feature is supported by the I2Cx Instance.
 842:Drivers/STM32F1xx_HAL_Driver/Inc/stm32f1xx_ll_i2c.h ****   * @rmtoll CR1          ALERT         LL_I2C_IsEnabledSMBusAlert
 843:Drivers/STM32F1xx_HAL_Driver/Inc/stm32f1xx_ll_i2c.h ****   * @param  I2Cx I2C Instance.
 844:Drivers/STM32F1xx_HAL_Driver/Inc/stm32f1xx_ll_i2c.h ****   * @retval State of bit (1 or 0).
 845:Drivers/STM32F1xx_HAL_Driver/Inc/stm32f1xx_ll_i2c.h ****   */
 846:Drivers/STM32F1xx_HAL_Driver/Inc/stm32f1xx_ll_i2c.h **** __STATIC_INLINE uint32_t LL_I2C_IsEnabledSMBusAlert(I2C_TypeDef *I2Cx)
 847:Drivers/STM32F1xx_HAL_Driver/Inc/stm32f1xx_ll_i2c.h **** {
 848:Drivers/STM32F1xx_HAL_Driver/Inc/stm32f1xx_ll_i2c.h ****   return (READ_BIT(I2Cx->CR1, I2C_CR1_ALERT) == (I2C_CR1_ALERT));
 849:Drivers/STM32F1xx_HAL_Driver/Inc/stm32f1xx_ll_i2c.h **** }
 850:Drivers/STM32F1xx_HAL_Driver/Inc/stm32f1xx_ll_i2c.h **** 
 851:Drivers/STM32F1xx_HAL_Driver/Inc/stm32f1xx_ll_i2c.h **** /**
 852:Drivers/STM32F1xx_HAL_Driver/Inc/stm32f1xx_ll_i2c.h ****   * @brief  Enable SMBus Packet Error Calculation (PEC).
 853:Drivers/STM32F1xx_HAL_Driver/Inc/stm32f1xx_ll_i2c.h ****   * @note   Macro @ref IS_SMBUS_ALL_INSTANCE(I2Cx) can be used to check whether or not
 854:Drivers/STM32F1xx_HAL_Driver/Inc/stm32f1xx_ll_i2c.h ****   *         SMBus feature is supported by the I2Cx Instance.
 855:Drivers/STM32F1xx_HAL_Driver/Inc/stm32f1xx_ll_i2c.h ****   * @rmtoll CR1          ENPEC         LL_I2C_EnableSMBusPEC
 856:Drivers/STM32F1xx_HAL_Driver/Inc/stm32f1xx_ll_i2c.h ****   * @param  I2Cx I2C Instance.
 857:Drivers/STM32F1xx_HAL_Driver/Inc/stm32f1xx_ll_i2c.h ****   * @retval None
 858:Drivers/STM32F1xx_HAL_Driver/Inc/stm32f1xx_ll_i2c.h ****   */
 859:Drivers/STM32F1xx_HAL_Driver/Inc/stm32f1xx_ll_i2c.h **** __STATIC_INLINE void LL_I2C_EnableSMBusPEC(I2C_TypeDef *I2Cx)
 860:Drivers/STM32F1xx_HAL_Driver/Inc/stm32f1xx_ll_i2c.h **** {
 861:Drivers/STM32F1xx_HAL_Driver/Inc/stm32f1xx_ll_i2c.h ****   SET_BIT(I2Cx->CR1, I2C_CR1_ENPEC);
 862:Drivers/STM32F1xx_HAL_Driver/Inc/stm32f1xx_ll_i2c.h **** }
 863:Drivers/STM32F1xx_HAL_Driver/Inc/stm32f1xx_ll_i2c.h **** 
 864:Drivers/STM32F1xx_HAL_Driver/Inc/stm32f1xx_ll_i2c.h **** /**
 865:Drivers/STM32F1xx_HAL_Driver/Inc/stm32f1xx_ll_i2c.h ****   * @brief  Disable SMBus Packet Error Calculation (PEC).
 866:Drivers/STM32F1xx_HAL_Driver/Inc/stm32f1xx_ll_i2c.h ****   * @note   Macro @ref IS_SMBUS_ALL_INSTANCE(I2Cx) can be used to check whether or not
 867:Drivers/STM32F1xx_HAL_Driver/Inc/stm32f1xx_ll_i2c.h ****   *         SMBus feature is supported by the I2Cx Instance.
 868:Drivers/STM32F1xx_HAL_Driver/Inc/stm32f1xx_ll_i2c.h ****   * @rmtoll CR1          ENPEC         LL_I2C_DisableSMBusPEC
 869:Drivers/STM32F1xx_HAL_Driver/Inc/stm32f1xx_ll_i2c.h ****   * @param  I2Cx I2C Instance.
 870:Drivers/STM32F1xx_HAL_Driver/Inc/stm32f1xx_ll_i2c.h ****   * @retval None
 871:Drivers/STM32F1xx_HAL_Driver/Inc/stm32f1xx_ll_i2c.h ****   */
 872:Drivers/STM32F1xx_HAL_Driver/Inc/stm32f1xx_ll_i2c.h **** __STATIC_INLINE void LL_I2C_DisableSMBusPEC(I2C_TypeDef *I2Cx)
 873:Drivers/STM32F1xx_HAL_Driver/Inc/stm32f1xx_ll_i2c.h **** {
 874:Drivers/STM32F1xx_HAL_Driver/Inc/stm32f1xx_ll_i2c.h ****   CLEAR_BIT(I2Cx->CR1, I2C_CR1_ENPEC);
 875:Drivers/STM32F1xx_HAL_Driver/Inc/stm32f1xx_ll_i2c.h **** }
 876:Drivers/STM32F1xx_HAL_Driver/Inc/stm32f1xx_ll_i2c.h **** 
 877:Drivers/STM32F1xx_HAL_Driver/Inc/stm32f1xx_ll_i2c.h **** /**
 878:Drivers/STM32F1xx_HAL_Driver/Inc/stm32f1xx_ll_i2c.h ****   * @brief  Check if SMBus Packet Error Calculation (PEC) is enabled or disabled.
 879:Drivers/STM32F1xx_HAL_Driver/Inc/stm32f1xx_ll_i2c.h ****   * @note   Macro @ref IS_SMBUS_ALL_INSTANCE(I2Cx) can be used to check whether or not
 880:Drivers/STM32F1xx_HAL_Driver/Inc/stm32f1xx_ll_i2c.h ****   *         SMBus feature is supported by the I2Cx Instance.
 881:Drivers/STM32F1xx_HAL_Driver/Inc/stm32f1xx_ll_i2c.h ****   * @rmtoll CR1          ENPEC         LL_I2C_IsEnabledSMBusPEC
 882:Drivers/STM32F1xx_HAL_Driver/Inc/stm32f1xx_ll_i2c.h ****   * @param  I2Cx I2C Instance.
 883:Drivers/STM32F1xx_HAL_Driver/Inc/stm32f1xx_ll_i2c.h ****   * @retval State of bit (1 or 0).
 884:Drivers/STM32F1xx_HAL_Driver/Inc/stm32f1xx_ll_i2c.h ****   */
 885:Drivers/STM32F1xx_HAL_Driver/Inc/stm32f1xx_ll_i2c.h **** __STATIC_INLINE uint32_t LL_I2C_IsEnabledSMBusPEC(I2C_TypeDef *I2Cx)
 886:Drivers/STM32F1xx_HAL_Driver/Inc/stm32f1xx_ll_i2c.h **** {
 887:Drivers/STM32F1xx_HAL_Driver/Inc/stm32f1xx_ll_i2c.h ****   return (READ_BIT(I2Cx->CR1, I2C_CR1_ENPEC) == (I2C_CR1_ENPEC));
 888:Drivers/STM32F1xx_HAL_Driver/Inc/stm32f1xx_ll_i2c.h **** }
 889:Drivers/STM32F1xx_HAL_Driver/Inc/stm32f1xx_ll_i2c.h **** 
 890:Drivers/STM32F1xx_HAL_Driver/Inc/stm32f1xx_ll_i2c.h **** /**
 891:Drivers/STM32F1xx_HAL_Driver/Inc/stm32f1xx_ll_i2c.h ****   * @}
 892:Drivers/STM32F1xx_HAL_Driver/Inc/stm32f1xx_ll_i2c.h ****   */
ARM GAS  /tmp/ccSSjYDs.s 			page 38


 893:Drivers/STM32F1xx_HAL_Driver/Inc/stm32f1xx_ll_i2c.h **** 
 894:Drivers/STM32F1xx_HAL_Driver/Inc/stm32f1xx_ll_i2c.h **** /** @defgroup I2C_LL_EF_IT_Management IT_Management
 895:Drivers/STM32F1xx_HAL_Driver/Inc/stm32f1xx_ll_i2c.h ****   * @{
 896:Drivers/STM32F1xx_HAL_Driver/Inc/stm32f1xx_ll_i2c.h ****   */
 897:Drivers/STM32F1xx_HAL_Driver/Inc/stm32f1xx_ll_i2c.h **** 
 898:Drivers/STM32F1xx_HAL_Driver/Inc/stm32f1xx_ll_i2c.h **** /**
 899:Drivers/STM32F1xx_HAL_Driver/Inc/stm32f1xx_ll_i2c.h ****   * @brief  Enable TXE interrupt.
 900:Drivers/STM32F1xx_HAL_Driver/Inc/stm32f1xx_ll_i2c.h ****   * @rmtoll CR2          ITEVTEN       LL_I2C_EnableIT_TX\n
 901:Drivers/STM32F1xx_HAL_Driver/Inc/stm32f1xx_ll_i2c.h ****   *         CR2          ITBUFEN       LL_I2C_EnableIT_TX
 902:Drivers/STM32F1xx_HAL_Driver/Inc/stm32f1xx_ll_i2c.h ****   * @param  I2Cx I2C Instance.
 903:Drivers/STM32F1xx_HAL_Driver/Inc/stm32f1xx_ll_i2c.h ****   * @retval None
 904:Drivers/STM32F1xx_HAL_Driver/Inc/stm32f1xx_ll_i2c.h ****   */
 905:Drivers/STM32F1xx_HAL_Driver/Inc/stm32f1xx_ll_i2c.h **** __STATIC_INLINE void LL_I2C_EnableIT_TX(I2C_TypeDef *I2Cx)
 906:Drivers/STM32F1xx_HAL_Driver/Inc/stm32f1xx_ll_i2c.h **** {
 907:Drivers/STM32F1xx_HAL_Driver/Inc/stm32f1xx_ll_i2c.h ****   SET_BIT(I2Cx->CR2, I2C_CR2_ITEVTEN | I2C_CR2_ITBUFEN);
 908:Drivers/STM32F1xx_HAL_Driver/Inc/stm32f1xx_ll_i2c.h **** }
 909:Drivers/STM32F1xx_HAL_Driver/Inc/stm32f1xx_ll_i2c.h **** 
 910:Drivers/STM32F1xx_HAL_Driver/Inc/stm32f1xx_ll_i2c.h **** /**
 911:Drivers/STM32F1xx_HAL_Driver/Inc/stm32f1xx_ll_i2c.h ****   * @brief  Disable TXE interrupt.
 912:Drivers/STM32F1xx_HAL_Driver/Inc/stm32f1xx_ll_i2c.h ****   * @rmtoll CR2          ITEVTEN       LL_I2C_DisableIT_TX\n
 913:Drivers/STM32F1xx_HAL_Driver/Inc/stm32f1xx_ll_i2c.h ****   *         CR2          ITBUFEN       LL_I2C_DisableIT_TX
 914:Drivers/STM32F1xx_HAL_Driver/Inc/stm32f1xx_ll_i2c.h ****   * @param  I2Cx I2C Instance.
 915:Drivers/STM32F1xx_HAL_Driver/Inc/stm32f1xx_ll_i2c.h ****   * @retval None
 916:Drivers/STM32F1xx_HAL_Driver/Inc/stm32f1xx_ll_i2c.h ****   */
 917:Drivers/STM32F1xx_HAL_Driver/Inc/stm32f1xx_ll_i2c.h **** __STATIC_INLINE void LL_I2C_DisableIT_TX(I2C_TypeDef *I2Cx)
 918:Drivers/STM32F1xx_HAL_Driver/Inc/stm32f1xx_ll_i2c.h **** {
 919:Drivers/STM32F1xx_HAL_Driver/Inc/stm32f1xx_ll_i2c.h ****   CLEAR_BIT(I2Cx->CR2, I2C_CR2_ITEVTEN | I2C_CR2_ITBUFEN);
 920:Drivers/STM32F1xx_HAL_Driver/Inc/stm32f1xx_ll_i2c.h **** }
 921:Drivers/STM32F1xx_HAL_Driver/Inc/stm32f1xx_ll_i2c.h **** 
 922:Drivers/STM32F1xx_HAL_Driver/Inc/stm32f1xx_ll_i2c.h **** /**
 923:Drivers/STM32F1xx_HAL_Driver/Inc/stm32f1xx_ll_i2c.h ****   * @brief  Check if the TXE Interrupt is enabled or disabled.
 924:Drivers/STM32F1xx_HAL_Driver/Inc/stm32f1xx_ll_i2c.h ****   * @rmtoll CR2          ITEVTEN       LL_I2C_IsEnabledIT_TX\n
 925:Drivers/STM32F1xx_HAL_Driver/Inc/stm32f1xx_ll_i2c.h ****   *         CR2          ITBUFEN       LL_I2C_IsEnabledIT_TX
 926:Drivers/STM32F1xx_HAL_Driver/Inc/stm32f1xx_ll_i2c.h ****   * @param  I2Cx I2C Instance.
 927:Drivers/STM32F1xx_HAL_Driver/Inc/stm32f1xx_ll_i2c.h ****   * @retval State of bit (1 or 0).
 928:Drivers/STM32F1xx_HAL_Driver/Inc/stm32f1xx_ll_i2c.h ****   */
 929:Drivers/STM32F1xx_HAL_Driver/Inc/stm32f1xx_ll_i2c.h **** __STATIC_INLINE uint32_t LL_I2C_IsEnabledIT_TX(I2C_TypeDef *I2Cx)
 930:Drivers/STM32F1xx_HAL_Driver/Inc/stm32f1xx_ll_i2c.h **** {
 931:Drivers/STM32F1xx_HAL_Driver/Inc/stm32f1xx_ll_i2c.h ****   return (READ_BIT(I2Cx->CR2, I2C_CR2_ITEVTEN | I2C_CR2_ITBUFEN) == (I2C_CR2_ITEVTEN | I2C_CR2_ITBU
 932:Drivers/STM32F1xx_HAL_Driver/Inc/stm32f1xx_ll_i2c.h **** }
 933:Drivers/STM32F1xx_HAL_Driver/Inc/stm32f1xx_ll_i2c.h **** 
 934:Drivers/STM32F1xx_HAL_Driver/Inc/stm32f1xx_ll_i2c.h **** /**
 935:Drivers/STM32F1xx_HAL_Driver/Inc/stm32f1xx_ll_i2c.h ****   * @brief  Enable RXNE interrupt.
 936:Drivers/STM32F1xx_HAL_Driver/Inc/stm32f1xx_ll_i2c.h ****   * @rmtoll CR2          ITEVTEN       LL_I2C_EnableIT_RX\n
 937:Drivers/STM32F1xx_HAL_Driver/Inc/stm32f1xx_ll_i2c.h ****   *         CR2          ITBUFEN       LL_I2C_EnableIT_RX
 938:Drivers/STM32F1xx_HAL_Driver/Inc/stm32f1xx_ll_i2c.h ****   * @param  I2Cx I2C Instance.
 939:Drivers/STM32F1xx_HAL_Driver/Inc/stm32f1xx_ll_i2c.h ****   * @retval None
 940:Drivers/STM32F1xx_HAL_Driver/Inc/stm32f1xx_ll_i2c.h ****   */
 941:Drivers/STM32F1xx_HAL_Driver/Inc/stm32f1xx_ll_i2c.h **** __STATIC_INLINE void LL_I2C_EnableIT_RX(I2C_TypeDef *I2Cx)
 942:Drivers/STM32F1xx_HAL_Driver/Inc/stm32f1xx_ll_i2c.h **** {
 943:Drivers/STM32F1xx_HAL_Driver/Inc/stm32f1xx_ll_i2c.h ****   SET_BIT(I2Cx->CR2, I2C_CR2_ITEVTEN | I2C_CR2_ITBUFEN);
 944:Drivers/STM32F1xx_HAL_Driver/Inc/stm32f1xx_ll_i2c.h **** }
 945:Drivers/STM32F1xx_HAL_Driver/Inc/stm32f1xx_ll_i2c.h **** 
 946:Drivers/STM32F1xx_HAL_Driver/Inc/stm32f1xx_ll_i2c.h **** /**
 947:Drivers/STM32F1xx_HAL_Driver/Inc/stm32f1xx_ll_i2c.h ****   * @brief  Disable RXNE interrupt.
 948:Drivers/STM32F1xx_HAL_Driver/Inc/stm32f1xx_ll_i2c.h ****   * @rmtoll CR2          ITEVTEN       LL_I2C_DisableIT_RX\n
 949:Drivers/STM32F1xx_HAL_Driver/Inc/stm32f1xx_ll_i2c.h ****   *         CR2          ITBUFEN       LL_I2C_DisableIT_RX
ARM GAS  /tmp/ccSSjYDs.s 			page 39


 950:Drivers/STM32F1xx_HAL_Driver/Inc/stm32f1xx_ll_i2c.h ****   * @param  I2Cx I2C Instance.
 951:Drivers/STM32F1xx_HAL_Driver/Inc/stm32f1xx_ll_i2c.h ****   * @retval None
 952:Drivers/STM32F1xx_HAL_Driver/Inc/stm32f1xx_ll_i2c.h ****   */
 953:Drivers/STM32F1xx_HAL_Driver/Inc/stm32f1xx_ll_i2c.h **** __STATIC_INLINE void LL_I2C_DisableIT_RX(I2C_TypeDef *I2Cx)
 954:Drivers/STM32F1xx_HAL_Driver/Inc/stm32f1xx_ll_i2c.h **** {
 955:Drivers/STM32F1xx_HAL_Driver/Inc/stm32f1xx_ll_i2c.h ****   CLEAR_BIT(I2Cx->CR2, I2C_CR2_ITEVTEN | I2C_CR2_ITBUFEN);
 956:Drivers/STM32F1xx_HAL_Driver/Inc/stm32f1xx_ll_i2c.h **** }
 957:Drivers/STM32F1xx_HAL_Driver/Inc/stm32f1xx_ll_i2c.h **** 
 958:Drivers/STM32F1xx_HAL_Driver/Inc/stm32f1xx_ll_i2c.h **** /**
 959:Drivers/STM32F1xx_HAL_Driver/Inc/stm32f1xx_ll_i2c.h ****   * @brief  Check if the RXNE Interrupt is enabled or disabled.
 960:Drivers/STM32F1xx_HAL_Driver/Inc/stm32f1xx_ll_i2c.h ****   * @rmtoll CR2          ITEVTEN       LL_I2C_IsEnabledIT_RX\n
 961:Drivers/STM32F1xx_HAL_Driver/Inc/stm32f1xx_ll_i2c.h ****   *         CR2          ITBUFEN       LL_I2C_IsEnabledIT_RX
 962:Drivers/STM32F1xx_HAL_Driver/Inc/stm32f1xx_ll_i2c.h ****   * @param  I2Cx I2C Instance.
 963:Drivers/STM32F1xx_HAL_Driver/Inc/stm32f1xx_ll_i2c.h ****   * @retval State of bit (1 or 0).
 964:Drivers/STM32F1xx_HAL_Driver/Inc/stm32f1xx_ll_i2c.h ****   */
 965:Drivers/STM32F1xx_HAL_Driver/Inc/stm32f1xx_ll_i2c.h **** __STATIC_INLINE uint32_t LL_I2C_IsEnabledIT_RX(I2C_TypeDef *I2Cx)
 966:Drivers/STM32F1xx_HAL_Driver/Inc/stm32f1xx_ll_i2c.h **** {
 967:Drivers/STM32F1xx_HAL_Driver/Inc/stm32f1xx_ll_i2c.h ****   return (READ_BIT(I2Cx->CR2, I2C_CR2_ITEVTEN | I2C_CR2_ITBUFEN) == (I2C_CR2_ITEVTEN | I2C_CR2_ITBU
 968:Drivers/STM32F1xx_HAL_Driver/Inc/stm32f1xx_ll_i2c.h **** }
 969:Drivers/STM32F1xx_HAL_Driver/Inc/stm32f1xx_ll_i2c.h **** 
 970:Drivers/STM32F1xx_HAL_Driver/Inc/stm32f1xx_ll_i2c.h **** /**
 971:Drivers/STM32F1xx_HAL_Driver/Inc/stm32f1xx_ll_i2c.h ****   * @brief  Enable Events interrupts.
 972:Drivers/STM32F1xx_HAL_Driver/Inc/stm32f1xx_ll_i2c.h ****   * @note   Any of these events will generate interrupt :
 973:Drivers/STM32F1xx_HAL_Driver/Inc/stm32f1xx_ll_i2c.h ****   *         Start Bit (SB)
 974:Drivers/STM32F1xx_HAL_Driver/Inc/stm32f1xx_ll_i2c.h ****   *         Address sent, Address matched (ADDR)
 975:Drivers/STM32F1xx_HAL_Driver/Inc/stm32f1xx_ll_i2c.h ****   *         10-bit header sent (ADD10)
 976:Drivers/STM32F1xx_HAL_Driver/Inc/stm32f1xx_ll_i2c.h ****   *         Stop detection  (STOPF)
 977:Drivers/STM32F1xx_HAL_Driver/Inc/stm32f1xx_ll_i2c.h ****   *         Byte transfer finished (BTF)
 978:Drivers/STM32F1xx_HAL_Driver/Inc/stm32f1xx_ll_i2c.h ****   *
 979:Drivers/STM32F1xx_HAL_Driver/Inc/stm32f1xx_ll_i2c.h ****   * @note   Any of these events will generate interrupt if Buffer interrupts are enabled too(using 
 980:Drivers/STM32F1xx_HAL_Driver/Inc/stm32f1xx_ll_i2c.h ****   *         Receive buffer not empty (RXNE)
 981:Drivers/STM32F1xx_HAL_Driver/Inc/stm32f1xx_ll_i2c.h ****   *         Transmit buffer empty (TXE)
 982:Drivers/STM32F1xx_HAL_Driver/Inc/stm32f1xx_ll_i2c.h ****   * @rmtoll CR2          ITEVTEN       LL_I2C_EnableIT_EVT
 983:Drivers/STM32F1xx_HAL_Driver/Inc/stm32f1xx_ll_i2c.h ****   * @param  I2Cx I2C Instance.
 984:Drivers/STM32F1xx_HAL_Driver/Inc/stm32f1xx_ll_i2c.h ****   * @retval None
 985:Drivers/STM32F1xx_HAL_Driver/Inc/stm32f1xx_ll_i2c.h ****   */
 986:Drivers/STM32F1xx_HAL_Driver/Inc/stm32f1xx_ll_i2c.h **** __STATIC_INLINE void LL_I2C_EnableIT_EVT(I2C_TypeDef *I2Cx)
 987:Drivers/STM32F1xx_HAL_Driver/Inc/stm32f1xx_ll_i2c.h **** {
 988:Drivers/STM32F1xx_HAL_Driver/Inc/stm32f1xx_ll_i2c.h ****   SET_BIT(I2Cx->CR2, I2C_CR2_ITEVTEN);
 989:Drivers/STM32F1xx_HAL_Driver/Inc/stm32f1xx_ll_i2c.h **** }
 990:Drivers/STM32F1xx_HAL_Driver/Inc/stm32f1xx_ll_i2c.h **** 
 991:Drivers/STM32F1xx_HAL_Driver/Inc/stm32f1xx_ll_i2c.h **** /**
 992:Drivers/STM32F1xx_HAL_Driver/Inc/stm32f1xx_ll_i2c.h ****   * @brief  Disable Events interrupts.
 993:Drivers/STM32F1xx_HAL_Driver/Inc/stm32f1xx_ll_i2c.h ****   * @note   Any of these events will generate interrupt :
 994:Drivers/STM32F1xx_HAL_Driver/Inc/stm32f1xx_ll_i2c.h ****   *         Start Bit (SB)
 995:Drivers/STM32F1xx_HAL_Driver/Inc/stm32f1xx_ll_i2c.h ****   *         Address sent, Address matched (ADDR)
 996:Drivers/STM32F1xx_HAL_Driver/Inc/stm32f1xx_ll_i2c.h ****   *         10-bit header sent (ADD10)
 997:Drivers/STM32F1xx_HAL_Driver/Inc/stm32f1xx_ll_i2c.h ****   *         Stop detection  (STOPF)
 998:Drivers/STM32F1xx_HAL_Driver/Inc/stm32f1xx_ll_i2c.h ****   *         Byte transfer finished (BTF)
 999:Drivers/STM32F1xx_HAL_Driver/Inc/stm32f1xx_ll_i2c.h ****   *         Receive buffer not empty (RXNE)
1000:Drivers/STM32F1xx_HAL_Driver/Inc/stm32f1xx_ll_i2c.h ****   *         Transmit buffer empty (TXE)
1001:Drivers/STM32F1xx_HAL_Driver/Inc/stm32f1xx_ll_i2c.h ****   * @rmtoll CR2          ITEVTEN       LL_I2C_DisableIT_EVT
1002:Drivers/STM32F1xx_HAL_Driver/Inc/stm32f1xx_ll_i2c.h ****   * @param  I2Cx I2C Instance.
1003:Drivers/STM32F1xx_HAL_Driver/Inc/stm32f1xx_ll_i2c.h ****   * @retval None
1004:Drivers/STM32F1xx_HAL_Driver/Inc/stm32f1xx_ll_i2c.h ****   */
1005:Drivers/STM32F1xx_HAL_Driver/Inc/stm32f1xx_ll_i2c.h **** __STATIC_INLINE void LL_I2C_DisableIT_EVT(I2C_TypeDef *I2Cx)
1006:Drivers/STM32F1xx_HAL_Driver/Inc/stm32f1xx_ll_i2c.h **** {
ARM GAS  /tmp/ccSSjYDs.s 			page 40


1007:Drivers/STM32F1xx_HAL_Driver/Inc/stm32f1xx_ll_i2c.h ****   CLEAR_BIT(I2Cx->CR2, I2C_CR2_ITEVTEN);
1008:Drivers/STM32F1xx_HAL_Driver/Inc/stm32f1xx_ll_i2c.h **** }
1009:Drivers/STM32F1xx_HAL_Driver/Inc/stm32f1xx_ll_i2c.h **** 
1010:Drivers/STM32F1xx_HAL_Driver/Inc/stm32f1xx_ll_i2c.h **** /**
1011:Drivers/STM32F1xx_HAL_Driver/Inc/stm32f1xx_ll_i2c.h ****   * @brief  Check if Events interrupts are enabled or disabled.
1012:Drivers/STM32F1xx_HAL_Driver/Inc/stm32f1xx_ll_i2c.h ****   * @rmtoll CR2          ITEVTEN       LL_I2C_IsEnabledIT_EVT
1013:Drivers/STM32F1xx_HAL_Driver/Inc/stm32f1xx_ll_i2c.h ****   * @param  I2Cx I2C Instance.
1014:Drivers/STM32F1xx_HAL_Driver/Inc/stm32f1xx_ll_i2c.h ****   * @retval State of bit (1 or 0).
1015:Drivers/STM32F1xx_HAL_Driver/Inc/stm32f1xx_ll_i2c.h ****   */
1016:Drivers/STM32F1xx_HAL_Driver/Inc/stm32f1xx_ll_i2c.h **** __STATIC_INLINE uint32_t LL_I2C_IsEnabledIT_EVT(I2C_TypeDef *I2Cx)
1017:Drivers/STM32F1xx_HAL_Driver/Inc/stm32f1xx_ll_i2c.h **** {
1018:Drivers/STM32F1xx_HAL_Driver/Inc/stm32f1xx_ll_i2c.h ****   return (READ_BIT(I2Cx->CR2, I2C_CR2_ITEVTEN) == (I2C_CR2_ITEVTEN));
1019:Drivers/STM32F1xx_HAL_Driver/Inc/stm32f1xx_ll_i2c.h **** }
1020:Drivers/STM32F1xx_HAL_Driver/Inc/stm32f1xx_ll_i2c.h **** 
1021:Drivers/STM32F1xx_HAL_Driver/Inc/stm32f1xx_ll_i2c.h **** /**
1022:Drivers/STM32F1xx_HAL_Driver/Inc/stm32f1xx_ll_i2c.h ****   * @brief  Enable Buffer interrupts.
1023:Drivers/STM32F1xx_HAL_Driver/Inc/stm32f1xx_ll_i2c.h ****   * @note   Any of these Buffer events will generate interrupt if Events interrupts are enabled too
1024:Drivers/STM32F1xx_HAL_Driver/Inc/stm32f1xx_ll_i2c.h ****   *         Receive buffer not empty (RXNE)
1025:Drivers/STM32F1xx_HAL_Driver/Inc/stm32f1xx_ll_i2c.h ****   *         Transmit buffer empty (TXE)
1026:Drivers/STM32F1xx_HAL_Driver/Inc/stm32f1xx_ll_i2c.h ****   * @rmtoll CR2          ITBUFEN       LL_I2C_EnableIT_BUF
1027:Drivers/STM32F1xx_HAL_Driver/Inc/stm32f1xx_ll_i2c.h ****   * @param  I2Cx I2C Instance.
1028:Drivers/STM32F1xx_HAL_Driver/Inc/stm32f1xx_ll_i2c.h ****   * @retval None
1029:Drivers/STM32F1xx_HAL_Driver/Inc/stm32f1xx_ll_i2c.h ****   */
1030:Drivers/STM32F1xx_HAL_Driver/Inc/stm32f1xx_ll_i2c.h **** __STATIC_INLINE void LL_I2C_EnableIT_BUF(I2C_TypeDef *I2Cx)
1031:Drivers/STM32F1xx_HAL_Driver/Inc/stm32f1xx_ll_i2c.h **** {
1032:Drivers/STM32F1xx_HAL_Driver/Inc/stm32f1xx_ll_i2c.h ****   SET_BIT(I2Cx->CR2, I2C_CR2_ITBUFEN);
1033:Drivers/STM32F1xx_HAL_Driver/Inc/stm32f1xx_ll_i2c.h **** }
1034:Drivers/STM32F1xx_HAL_Driver/Inc/stm32f1xx_ll_i2c.h **** 
1035:Drivers/STM32F1xx_HAL_Driver/Inc/stm32f1xx_ll_i2c.h **** /**
1036:Drivers/STM32F1xx_HAL_Driver/Inc/stm32f1xx_ll_i2c.h ****   * @brief  Disable Buffer interrupts.
1037:Drivers/STM32F1xx_HAL_Driver/Inc/stm32f1xx_ll_i2c.h ****   * @note   Any of these Buffer events will generate interrupt :
1038:Drivers/STM32F1xx_HAL_Driver/Inc/stm32f1xx_ll_i2c.h ****   *         Receive buffer not empty (RXNE)
1039:Drivers/STM32F1xx_HAL_Driver/Inc/stm32f1xx_ll_i2c.h ****   *         Transmit buffer empty (TXE)
1040:Drivers/STM32F1xx_HAL_Driver/Inc/stm32f1xx_ll_i2c.h ****   * @rmtoll CR2          ITBUFEN       LL_I2C_DisableIT_BUF
1041:Drivers/STM32F1xx_HAL_Driver/Inc/stm32f1xx_ll_i2c.h ****   * @param  I2Cx I2C Instance.
1042:Drivers/STM32F1xx_HAL_Driver/Inc/stm32f1xx_ll_i2c.h ****   * @retval None
1043:Drivers/STM32F1xx_HAL_Driver/Inc/stm32f1xx_ll_i2c.h ****   */
1044:Drivers/STM32F1xx_HAL_Driver/Inc/stm32f1xx_ll_i2c.h **** __STATIC_INLINE void LL_I2C_DisableIT_BUF(I2C_TypeDef *I2Cx)
1045:Drivers/STM32F1xx_HAL_Driver/Inc/stm32f1xx_ll_i2c.h **** {
1046:Drivers/STM32F1xx_HAL_Driver/Inc/stm32f1xx_ll_i2c.h ****   CLEAR_BIT(I2Cx->CR2, I2C_CR2_ITBUFEN);
1047:Drivers/STM32F1xx_HAL_Driver/Inc/stm32f1xx_ll_i2c.h **** }
1048:Drivers/STM32F1xx_HAL_Driver/Inc/stm32f1xx_ll_i2c.h **** 
1049:Drivers/STM32F1xx_HAL_Driver/Inc/stm32f1xx_ll_i2c.h **** /**
1050:Drivers/STM32F1xx_HAL_Driver/Inc/stm32f1xx_ll_i2c.h ****   * @brief  Check if Buffer interrupts are enabled or disabled.
1051:Drivers/STM32F1xx_HAL_Driver/Inc/stm32f1xx_ll_i2c.h ****   * @rmtoll CR2          ITBUFEN       LL_I2C_IsEnabledIT_BUF
1052:Drivers/STM32F1xx_HAL_Driver/Inc/stm32f1xx_ll_i2c.h ****   * @param  I2Cx I2C Instance.
1053:Drivers/STM32F1xx_HAL_Driver/Inc/stm32f1xx_ll_i2c.h ****   * @retval State of bit (1 or 0).
1054:Drivers/STM32F1xx_HAL_Driver/Inc/stm32f1xx_ll_i2c.h ****   */
1055:Drivers/STM32F1xx_HAL_Driver/Inc/stm32f1xx_ll_i2c.h **** __STATIC_INLINE uint32_t LL_I2C_IsEnabledIT_BUF(I2C_TypeDef *I2Cx)
1056:Drivers/STM32F1xx_HAL_Driver/Inc/stm32f1xx_ll_i2c.h **** {
1057:Drivers/STM32F1xx_HAL_Driver/Inc/stm32f1xx_ll_i2c.h ****   return (READ_BIT(I2Cx->CR2, I2C_CR2_ITBUFEN) == (I2C_CR2_ITBUFEN));
1058:Drivers/STM32F1xx_HAL_Driver/Inc/stm32f1xx_ll_i2c.h **** }
1059:Drivers/STM32F1xx_HAL_Driver/Inc/stm32f1xx_ll_i2c.h **** 
1060:Drivers/STM32F1xx_HAL_Driver/Inc/stm32f1xx_ll_i2c.h **** /**
1061:Drivers/STM32F1xx_HAL_Driver/Inc/stm32f1xx_ll_i2c.h ****   * @brief  Enable Error interrupts.
1062:Drivers/STM32F1xx_HAL_Driver/Inc/stm32f1xx_ll_i2c.h ****   * @note   Macro @ref IS_SMBUS_ALL_INSTANCE(I2Cx) can be used to check whether or not
1063:Drivers/STM32F1xx_HAL_Driver/Inc/stm32f1xx_ll_i2c.h ****   *         SMBus feature is supported by the I2Cx Instance.
ARM GAS  /tmp/ccSSjYDs.s 			page 41


1064:Drivers/STM32F1xx_HAL_Driver/Inc/stm32f1xx_ll_i2c.h ****   * @note   Any of these errors will generate interrupt :
1065:Drivers/STM32F1xx_HAL_Driver/Inc/stm32f1xx_ll_i2c.h ****   *         Bus Error detection (BERR)
1066:Drivers/STM32F1xx_HAL_Driver/Inc/stm32f1xx_ll_i2c.h ****   *         Arbitration Loss (ARLO)
1067:Drivers/STM32F1xx_HAL_Driver/Inc/stm32f1xx_ll_i2c.h ****   *         Acknowledge Failure(AF)
1068:Drivers/STM32F1xx_HAL_Driver/Inc/stm32f1xx_ll_i2c.h ****   *         Overrun/Underrun (OVR)
1069:Drivers/STM32F1xx_HAL_Driver/Inc/stm32f1xx_ll_i2c.h ****   *         SMBus Timeout detection (TIMEOUT)
1070:Drivers/STM32F1xx_HAL_Driver/Inc/stm32f1xx_ll_i2c.h ****   *         SMBus PEC error detection (PECERR)
1071:Drivers/STM32F1xx_HAL_Driver/Inc/stm32f1xx_ll_i2c.h ****   *         SMBus Alert pin event detection (SMBALERT)
1072:Drivers/STM32F1xx_HAL_Driver/Inc/stm32f1xx_ll_i2c.h ****   * @rmtoll CR2          ITERREN       LL_I2C_EnableIT_ERR
1073:Drivers/STM32F1xx_HAL_Driver/Inc/stm32f1xx_ll_i2c.h ****   * @param  I2Cx I2C Instance.
1074:Drivers/STM32F1xx_HAL_Driver/Inc/stm32f1xx_ll_i2c.h ****   * @retval None
1075:Drivers/STM32F1xx_HAL_Driver/Inc/stm32f1xx_ll_i2c.h ****   */
1076:Drivers/STM32F1xx_HAL_Driver/Inc/stm32f1xx_ll_i2c.h **** __STATIC_INLINE void LL_I2C_EnableIT_ERR(I2C_TypeDef *I2Cx)
1077:Drivers/STM32F1xx_HAL_Driver/Inc/stm32f1xx_ll_i2c.h **** {
1078:Drivers/STM32F1xx_HAL_Driver/Inc/stm32f1xx_ll_i2c.h ****   SET_BIT(I2Cx->CR2, I2C_CR2_ITERREN);
1079:Drivers/STM32F1xx_HAL_Driver/Inc/stm32f1xx_ll_i2c.h **** }
1080:Drivers/STM32F1xx_HAL_Driver/Inc/stm32f1xx_ll_i2c.h **** 
1081:Drivers/STM32F1xx_HAL_Driver/Inc/stm32f1xx_ll_i2c.h **** /**
1082:Drivers/STM32F1xx_HAL_Driver/Inc/stm32f1xx_ll_i2c.h ****   * @brief  Disable Error interrupts.
1083:Drivers/STM32F1xx_HAL_Driver/Inc/stm32f1xx_ll_i2c.h ****   * @note   Macro @ref IS_SMBUS_ALL_INSTANCE(I2Cx) can be used to check whether or not
1084:Drivers/STM32F1xx_HAL_Driver/Inc/stm32f1xx_ll_i2c.h ****   *         SMBus feature is supported by the I2Cx Instance.
1085:Drivers/STM32F1xx_HAL_Driver/Inc/stm32f1xx_ll_i2c.h ****   * @note   Any of these errors will generate interrupt :
1086:Drivers/STM32F1xx_HAL_Driver/Inc/stm32f1xx_ll_i2c.h ****   *         Bus Error detection (BERR)
1087:Drivers/STM32F1xx_HAL_Driver/Inc/stm32f1xx_ll_i2c.h ****   *         Arbitration Loss (ARLO)
1088:Drivers/STM32F1xx_HAL_Driver/Inc/stm32f1xx_ll_i2c.h ****   *         Acknowledge Failure(AF)
1089:Drivers/STM32F1xx_HAL_Driver/Inc/stm32f1xx_ll_i2c.h ****   *         Overrun/Underrun (OVR)
1090:Drivers/STM32F1xx_HAL_Driver/Inc/stm32f1xx_ll_i2c.h ****   *         SMBus Timeout detection (TIMEOUT)
1091:Drivers/STM32F1xx_HAL_Driver/Inc/stm32f1xx_ll_i2c.h ****   *         SMBus PEC error detection (PECERR)
1092:Drivers/STM32F1xx_HAL_Driver/Inc/stm32f1xx_ll_i2c.h ****   *         SMBus Alert pin event detection (SMBALERT)
1093:Drivers/STM32F1xx_HAL_Driver/Inc/stm32f1xx_ll_i2c.h ****   * @rmtoll CR2          ITERREN       LL_I2C_DisableIT_ERR
1094:Drivers/STM32F1xx_HAL_Driver/Inc/stm32f1xx_ll_i2c.h ****   * @param  I2Cx I2C Instance.
1095:Drivers/STM32F1xx_HAL_Driver/Inc/stm32f1xx_ll_i2c.h ****   * @retval None
1096:Drivers/STM32F1xx_HAL_Driver/Inc/stm32f1xx_ll_i2c.h ****   */
1097:Drivers/STM32F1xx_HAL_Driver/Inc/stm32f1xx_ll_i2c.h **** __STATIC_INLINE void LL_I2C_DisableIT_ERR(I2C_TypeDef *I2Cx)
1098:Drivers/STM32F1xx_HAL_Driver/Inc/stm32f1xx_ll_i2c.h **** {
1099:Drivers/STM32F1xx_HAL_Driver/Inc/stm32f1xx_ll_i2c.h ****   CLEAR_BIT(I2Cx->CR2, I2C_CR2_ITERREN);
1100:Drivers/STM32F1xx_HAL_Driver/Inc/stm32f1xx_ll_i2c.h **** }
1101:Drivers/STM32F1xx_HAL_Driver/Inc/stm32f1xx_ll_i2c.h **** 
1102:Drivers/STM32F1xx_HAL_Driver/Inc/stm32f1xx_ll_i2c.h **** /**
1103:Drivers/STM32F1xx_HAL_Driver/Inc/stm32f1xx_ll_i2c.h ****   * @brief  Check if Error interrupts are enabled or disabled.
1104:Drivers/STM32F1xx_HAL_Driver/Inc/stm32f1xx_ll_i2c.h ****   * @rmtoll CR2          ITERREN       LL_I2C_IsEnabledIT_ERR
1105:Drivers/STM32F1xx_HAL_Driver/Inc/stm32f1xx_ll_i2c.h ****   * @param  I2Cx I2C Instance.
1106:Drivers/STM32F1xx_HAL_Driver/Inc/stm32f1xx_ll_i2c.h ****   * @retval State of bit (1 or 0).
1107:Drivers/STM32F1xx_HAL_Driver/Inc/stm32f1xx_ll_i2c.h ****   */
1108:Drivers/STM32F1xx_HAL_Driver/Inc/stm32f1xx_ll_i2c.h **** __STATIC_INLINE uint32_t LL_I2C_IsEnabledIT_ERR(I2C_TypeDef *I2Cx)
1109:Drivers/STM32F1xx_HAL_Driver/Inc/stm32f1xx_ll_i2c.h **** {
1110:Drivers/STM32F1xx_HAL_Driver/Inc/stm32f1xx_ll_i2c.h ****   return (READ_BIT(I2Cx->CR2, I2C_CR2_ITERREN) == (I2C_CR2_ITERREN));
1111:Drivers/STM32F1xx_HAL_Driver/Inc/stm32f1xx_ll_i2c.h **** }
1112:Drivers/STM32F1xx_HAL_Driver/Inc/stm32f1xx_ll_i2c.h **** 
1113:Drivers/STM32F1xx_HAL_Driver/Inc/stm32f1xx_ll_i2c.h **** /**
1114:Drivers/STM32F1xx_HAL_Driver/Inc/stm32f1xx_ll_i2c.h ****   * @}
1115:Drivers/STM32F1xx_HAL_Driver/Inc/stm32f1xx_ll_i2c.h ****   */
1116:Drivers/STM32F1xx_HAL_Driver/Inc/stm32f1xx_ll_i2c.h **** 
1117:Drivers/STM32F1xx_HAL_Driver/Inc/stm32f1xx_ll_i2c.h **** /** @defgroup I2C_LL_EF_FLAG_management FLAG_management
1118:Drivers/STM32F1xx_HAL_Driver/Inc/stm32f1xx_ll_i2c.h ****   * @{
1119:Drivers/STM32F1xx_HAL_Driver/Inc/stm32f1xx_ll_i2c.h ****   */
1120:Drivers/STM32F1xx_HAL_Driver/Inc/stm32f1xx_ll_i2c.h **** 
ARM GAS  /tmp/ccSSjYDs.s 			page 42


1121:Drivers/STM32F1xx_HAL_Driver/Inc/stm32f1xx_ll_i2c.h **** /**
1122:Drivers/STM32F1xx_HAL_Driver/Inc/stm32f1xx_ll_i2c.h ****   * @brief  Indicate the status of Transmit data register empty flag.
1123:Drivers/STM32F1xx_HAL_Driver/Inc/stm32f1xx_ll_i2c.h ****   * @note   RESET: When next data is written in Transmit data register.
1124:Drivers/STM32F1xx_HAL_Driver/Inc/stm32f1xx_ll_i2c.h ****   *         SET: When Transmit data register is empty.
1125:Drivers/STM32F1xx_HAL_Driver/Inc/stm32f1xx_ll_i2c.h ****   * @rmtoll SR1          TXE           LL_I2C_IsActiveFlag_TXE
1126:Drivers/STM32F1xx_HAL_Driver/Inc/stm32f1xx_ll_i2c.h ****   * @param  I2Cx I2C Instance.
1127:Drivers/STM32F1xx_HAL_Driver/Inc/stm32f1xx_ll_i2c.h ****   * @retval State of bit (1 or 0).
1128:Drivers/STM32F1xx_HAL_Driver/Inc/stm32f1xx_ll_i2c.h ****   */
1129:Drivers/STM32F1xx_HAL_Driver/Inc/stm32f1xx_ll_i2c.h **** __STATIC_INLINE uint32_t LL_I2C_IsActiveFlag_TXE(I2C_TypeDef *I2Cx)
1130:Drivers/STM32F1xx_HAL_Driver/Inc/stm32f1xx_ll_i2c.h **** {
1131:Drivers/STM32F1xx_HAL_Driver/Inc/stm32f1xx_ll_i2c.h ****   return (READ_BIT(I2Cx->SR1, I2C_SR1_TXE) == (I2C_SR1_TXE));
1132:Drivers/STM32F1xx_HAL_Driver/Inc/stm32f1xx_ll_i2c.h **** }
1133:Drivers/STM32F1xx_HAL_Driver/Inc/stm32f1xx_ll_i2c.h **** 
1134:Drivers/STM32F1xx_HAL_Driver/Inc/stm32f1xx_ll_i2c.h **** /**
1135:Drivers/STM32F1xx_HAL_Driver/Inc/stm32f1xx_ll_i2c.h ****   * @brief  Indicate the status of Byte Transfer Finished flag.
1136:Drivers/STM32F1xx_HAL_Driver/Inc/stm32f1xx_ll_i2c.h ****   *         RESET: When Data byte transfer not done.
1137:Drivers/STM32F1xx_HAL_Driver/Inc/stm32f1xx_ll_i2c.h ****   *         SET: When Data byte transfer succeeded.
1138:Drivers/STM32F1xx_HAL_Driver/Inc/stm32f1xx_ll_i2c.h ****   * @rmtoll SR1          BTF           LL_I2C_IsActiveFlag_BTF
1139:Drivers/STM32F1xx_HAL_Driver/Inc/stm32f1xx_ll_i2c.h ****   * @param  I2Cx I2C Instance.
1140:Drivers/STM32F1xx_HAL_Driver/Inc/stm32f1xx_ll_i2c.h ****   * @retval State of bit (1 or 0).
1141:Drivers/STM32F1xx_HAL_Driver/Inc/stm32f1xx_ll_i2c.h ****   */
1142:Drivers/STM32F1xx_HAL_Driver/Inc/stm32f1xx_ll_i2c.h **** __STATIC_INLINE uint32_t LL_I2C_IsActiveFlag_BTF(I2C_TypeDef *I2Cx)
1143:Drivers/STM32F1xx_HAL_Driver/Inc/stm32f1xx_ll_i2c.h **** {
1144:Drivers/STM32F1xx_HAL_Driver/Inc/stm32f1xx_ll_i2c.h ****   return (READ_BIT(I2Cx->SR1, I2C_SR1_BTF) == (I2C_SR1_BTF));
1145:Drivers/STM32F1xx_HAL_Driver/Inc/stm32f1xx_ll_i2c.h **** }
1146:Drivers/STM32F1xx_HAL_Driver/Inc/stm32f1xx_ll_i2c.h **** 
1147:Drivers/STM32F1xx_HAL_Driver/Inc/stm32f1xx_ll_i2c.h **** /**
1148:Drivers/STM32F1xx_HAL_Driver/Inc/stm32f1xx_ll_i2c.h ****   * @brief  Indicate the status of Receive data register not empty flag.
1149:Drivers/STM32F1xx_HAL_Driver/Inc/stm32f1xx_ll_i2c.h ****   * @note   RESET: When Receive data register is read.
1150:Drivers/STM32F1xx_HAL_Driver/Inc/stm32f1xx_ll_i2c.h ****   *         SET: When the received data is copied in Receive data register.
1151:Drivers/STM32F1xx_HAL_Driver/Inc/stm32f1xx_ll_i2c.h ****   * @rmtoll SR1          RXNE          LL_I2C_IsActiveFlag_RXNE
1152:Drivers/STM32F1xx_HAL_Driver/Inc/stm32f1xx_ll_i2c.h ****   * @param  I2Cx I2C Instance.
1153:Drivers/STM32F1xx_HAL_Driver/Inc/stm32f1xx_ll_i2c.h ****   * @retval State of bit (1 or 0).
1154:Drivers/STM32F1xx_HAL_Driver/Inc/stm32f1xx_ll_i2c.h ****   */
1155:Drivers/STM32F1xx_HAL_Driver/Inc/stm32f1xx_ll_i2c.h **** __STATIC_INLINE uint32_t LL_I2C_IsActiveFlag_RXNE(I2C_TypeDef *I2Cx)
1156:Drivers/STM32F1xx_HAL_Driver/Inc/stm32f1xx_ll_i2c.h **** {
1157:Drivers/STM32F1xx_HAL_Driver/Inc/stm32f1xx_ll_i2c.h ****   return (READ_BIT(I2Cx->SR1, I2C_SR1_RXNE) == (I2C_SR1_RXNE));
1158:Drivers/STM32F1xx_HAL_Driver/Inc/stm32f1xx_ll_i2c.h **** }
1159:Drivers/STM32F1xx_HAL_Driver/Inc/stm32f1xx_ll_i2c.h **** 
1160:Drivers/STM32F1xx_HAL_Driver/Inc/stm32f1xx_ll_i2c.h **** /**
1161:Drivers/STM32F1xx_HAL_Driver/Inc/stm32f1xx_ll_i2c.h ****   * @brief  Indicate the status of Start Bit (master mode).
1162:Drivers/STM32F1xx_HAL_Driver/Inc/stm32f1xx_ll_i2c.h ****   * @note   RESET: When No Start condition.
1163:Drivers/STM32F1xx_HAL_Driver/Inc/stm32f1xx_ll_i2c.h ****   *         SET: When Start condition is generated.
1164:Drivers/STM32F1xx_HAL_Driver/Inc/stm32f1xx_ll_i2c.h ****   * @rmtoll SR1          SB            LL_I2C_IsActiveFlag_SB
1165:Drivers/STM32F1xx_HAL_Driver/Inc/stm32f1xx_ll_i2c.h ****   * @param  I2Cx I2C Instance.
1166:Drivers/STM32F1xx_HAL_Driver/Inc/stm32f1xx_ll_i2c.h ****   * @retval State of bit (1 or 0).
1167:Drivers/STM32F1xx_HAL_Driver/Inc/stm32f1xx_ll_i2c.h ****   */
1168:Drivers/STM32F1xx_HAL_Driver/Inc/stm32f1xx_ll_i2c.h **** __STATIC_INLINE uint32_t LL_I2C_IsActiveFlag_SB(I2C_TypeDef *I2Cx)
1169:Drivers/STM32F1xx_HAL_Driver/Inc/stm32f1xx_ll_i2c.h **** {
1170:Drivers/STM32F1xx_HAL_Driver/Inc/stm32f1xx_ll_i2c.h ****   return (READ_BIT(I2Cx->SR1, I2C_SR1_SB) == (I2C_SR1_SB));
1171:Drivers/STM32F1xx_HAL_Driver/Inc/stm32f1xx_ll_i2c.h **** }
1172:Drivers/STM32F1xx_HAL_Driver/Inc/stm32f1xx_ll_i2c.h **** 
1173:Drivers/STM32F1xx_HAL_Driver/Inc/stm32f1xx_ll_i2c.h **** /**
1174:Drivers/STM32F1xx_HAL_Driver/Inc/stm32f1xx_ll_i2c.h ****   * @brief  Indicate the status of Address sent (master mode) or Address matched flag (slave mode).
1175:Drivers/STM32F1xx_HAL_Driver/Inc/stm32f1xx_ll_i2c.h ****   * @note   RESET: Clear default value.
1176:Drivers/STM32F1xx_HAL_Driver/Inc/stm32f1xx_ll_i2c.h ****   *         SET: When the address is fully sent (master mode) or when the received slave address ma
1177:Drivers/STM32F1xx_HAL_Driver/Inc/stm32f1xx_ll_i2c.h ****   * @rmtoll SR1          ADDR          LL_I2C_IsActiveFlag_ADDR
ARM GAS  /tmp/ccSSjYDs.s 			page 43


1178:Drivers/STM32F1xx_HAL_Driver/Inc/stm32f1xx_ll_i2c.h ****   * @param  I2Cx I2C Instance.
1179:Drivers/STM32F1xx_HAL_Driver/Inc/stm32f1xx_ll_i2c.h ****   * @retval State of bit (1 or 0).
1180:Drivers/STM32F1xx_HAL_Driver/Inc/stm32f1xx_ll_i2c.h ****   */
1181:Drivers/STM32F1xx_HAL_Driver/Inc/stm32f1xx_ll_i2c.h **** __STATIC_INLINE uint32_t LL_I2C_IsActiveFlag_ADDR(I2C_TypeDef *I2Cx)
1182:Drivers/STM32F1xx_HAL_Driver/Inc/stm32f1xx_ll_i2c.h **** {
1183:Drivers/STM32F1xx_HAL_Driver/Inc/stm32f1xx_ll_i2c.h ****   return (READ_BIT(I2Cx->SR1, I2C_SR1_ADDR) == (I2C_SR1_ADDR));
1184:Drivers/STM32F1xx_HAL_Driver/Inc/stm32f1xx_ll_i2c.h **** }
1185:Drivers/STM32F1xx_HAL_Driver/Inc/stm32f1xx_ll_i2c.h **** 
1186:Drivers/STM32F1xx_HAL_Driver/Inc/stm32f1xx_ll_i2c.h **** /**
1187:Drivers/STM32F1xx_HAL_Driver/Inc/stm32f1xx_ll_i2c.h ****   * @brief  Indicate the status of 10-bit header sent (master mode).
1188:Drivers/STM32F1xx_HAL_Driver/Inc/stm32f1xx_ll_i2c.h ****   * @note   RESET: When no ADD10 event occurred.
1189:Drivers/STM32F1xx_HAL_Driver/Inc/stm32f1xx_ll_i2c.h ****   *         SET: When the master has sent the first address byte (header).
1190:Drivers/STM32F1xx_HAL_Driver/Inc/stm32f1xx_ll_i2c.h ****   * @rmtoll SR1          ADD10         LL_I2C_IsActiveFlag_ADD10
1191:Drivers/STM32F1xx_HAL_Driver/Inc/stm32f1xx_ll_i2c.h ****   * @param  I2Cx I2C Instance.
1192:Drivers/STM32F1xx_HAL_Driver/Inc/stm32f1xx_ll_i2c.h ****   * @retval State of bit (1 or 0).
1193:Drivers/STM32F1xx_HAL_Driver/Inc/stm32f1xx_ll_i2c.h ****   */
1194:Drivers/STM32F1xx_HAL_Driver/Inc/stm32f1xx_ll_i2c.h **** __STATIC_INLINE uint32_t LL_I2C_IsActiveFlag_ADD10(I2C_TypeDef *I2Cx)
1195:Drivers/STM32F1xx_HAL_Driver/Inc/stm32f1xx_ll_i2c.h **** {
1196:Drivers/STM32F1xx_HAL_Driver/Inc/stm32f1xx_ll_i2c.h ****   return (READ_BIT(I2Cx->SR1, I2C_SR1_ADD10) == (I2C_SR1_ADD10));
1197:Drivers/STM32F1xx_HAL_Driver/Inc/stm32f1xx_ll_i2c.h **** }
1198:Drivers/STM32F1xx_HAL_Driver/Inc/stm32f1xx_ll_i2c.h **** 
1199:Drivers/STM32F1xx_HAL_Driver/Inc/stm32f1xx_ll_i2c.h **** /**
1200:Drivers/STM32F1xx_HAL_Driver/Inc/stm32f1xx_ll_i2c.h ****   * @brief  Indicate the status of Acknowledge failure flag.
1201:Drivers/STM32F1xx_HAL_Driver/Inc/stm32f1xx_ll_i2c.h ****   * @note   RESET: No acknowledge failure.
1202:Drivers/STM32F1xx_HAL_Driver/Inc/stm32f1xx_ll_i2c.h ****   *         SET: When an acknowledge failure is received after a byte transmission.
1203:Drivers/STM32F1xx_HAL_Driver/Inc/stm32f1xx_ll_i2c.h ****   * @rmtoll SR1          AF            LL_I2C_IsActiveFlag_AF
1204:Drivers/STM32F1xx_HAL_Driver/Inc/stm32f1xx_ll_i2c.h ****   * @param  I2Cx I2C Instance.
1205:Drivers/STM32F1xx_HAL_Driver/Inc/stm32f1xx_ll_i2c.h ****   * @retval State of bit (1 or 0).
1206:Drivers/STM32F1xx_HAL_Driver/Inc/stm32f1xx_ll_i2c.h ****   */
1207:Drivers/STM32F1xx_HAL_Driver/Inc/stm32f1xx_ll_i2c.h **** __STATIC_INLINE uint32_t LL_I2C_IsActiveFlag_AF(I2C_TypeDef *I2Cx)
1208:Drivers/STM32F1xx_HAL_Driver/Inc/stm32f1xx_ll_i2c.h **** {
1209:Drivers/STM32F1xx_HAL_Driver/Inc/stm32f1xx_ll_i2c.h ****   return (READ_BIT(I2Cx->SR1, I2C_SR1_AF) == (I2C_SR1_AF));
1210:Drivers/STM32F1xx_HAL_Driver/Inc/stm32f1xx_ll_i2c.h **** }
1211:Drivers/STM32F1xx_HAL_Driver/Inc/stm32f1xx_ll_i2c.h **** 
1212:Drivers/STM32F1xx_HAL_Driver/Inc/stm32f1xx_ll_i2c.h **** /**
1213:Drivers/STM32F1xx_HAL_Driver/Inc/stm32f1xx_ll_i2c.h ****   * @brief  Indicate the status of Stop detection flag (slave mode).
1214:Drivers/STM32F1xx_HAL_Driver/Inc/stm32f1xx_ll_i2c.h ****   * @note   RESET: Clear default value.
1215:Drivers/STM32F1xx_HAL_Driver/Inc/stm32f1xx_ll_i2c.h ****   *         SET: When a Stop condition is detected.
1216:Drivers/STM32F1xx_HAL_Driver/Inc/stm32f1xx_ll_i2c.h ****   * @rmtoll SR1          STOPF         LL_I2C_IsActiveFlag_STOP
1217:Drivers/STM32F1xx_HAL_Driver/Inc/stm32f1xx_ll_i2c.h ****   * @param  I2Cx I2C Instance.
1218:Drivers/STM32F1xx_HAL_Driver/Inc/stm32f1xx_ll_i2c.h ****   * @retval State of bit (1 or 0).
1219:Drivers/STM32F1xx_HAL_Driver/Inc/stm32f1xx_ll_i2c.h ****   */
1220:Drivers/STM32F1xx_HAL_Driver/Inc/stm32f1xx_ll_i2c.h **** __STATIC_INLINE uint32_t LL_I2C_IsActiveFlag_STOP(I2C_TypeDef *I2Cx)
1221:Drivers/STM32F1xx_HAL_Driver/Inc/stm32f1xx_ll_i2c.h **** {
1222:Drivers/STM32F1xx_HAL_Driver/Inc/stm32f1xx_ll_i2c.h ****   return (READ_BIT(I2Cx->SR1, I2C_SR1_STOPF) == (I2C_SR1_STOPF));
1223:Drivers/STM32F1xx_HAL_Driver/Inc/stm32f1xx_ll_i2c.h **** }
1224:Drivers/STM32F1xx_HAL_Driver/Inc/stm32f1xx_ll_i2c.h **** 
1225:Drivers/STM32F1xx_HAL_Driver/Inc/stm32f1xx_ll_i2c.h **** /**
1226:Drivers/STM32F1xx_HAL_Driver/Inc/stm32f1xx_ll_i2c.h ****   * @brief  Indicate the status of Bus error flag.
1227:Drivers/STM32F1xx_HAL_Driver/Inc/stm32f1xx_ll_i2c.h ****   * @note   RESET: Clear default value.
1228:Drivers/STM32F1xx_HAL_Driver/Inc/stm32f1xx_ll_i2c.h ****   *         SET: When a misplaced Start or Stop condition is detected.
1229:Drivers/STM32F1xx_HAL_Driver/Inc/stm32f1xx_ll_i2c.h ****   * @rmtoll SR1          BERR          LL_I2C_IsActiveFlag_BERR
1230:Drivers/STM32F1xx_HAL_Driver/Inc/stm32f1xx_ll_i2c.h ****   * @param  I2Cx I2C Instance.
1231:Drivers/STM32F1xx_HAL_Driver/Inc/stm32f1xx_ll_i2c.h ****   * @retval State of bit (1 or 0).
1232:Drivers/STM32F1xx_HAL_Driver/Inc/stm32f1xx_ll_i2c.h ****   */
1233:Drivers/STM32F1xx_HAL_Driver/Inc/stm32f1xx_ll_i2c.h **** __STATIC_INLINE uint32_t LL_I2C_IsActiveFlag_BERR(I2C_TypeDef *I2Cx)
1234:Drivers/STM32F1xx_HAL_Driver/Inc/stm32f1xx_ll_i2c.h **** {
ARM GAS  /tmp/ccSSjYDs.s 			page 44


1235:Drivers/STM32F1xx_HAL_Driver/Inc/stm32f1xx_ll_i2c.h ****   return (READ_BIT(I2Cx->SR1, I2C_SR1_BERR) == (I2C_SR1_BERR));
1236:Drivers/STM32F1xx_HAL_Driver/Inc/stm32f1xx_ll_i2c.h **** }
1237:Drivers/STM32F1xx_HAL_Driver/Inc/stm32f1xx_ll_i2c.h **** 
1238:Drivers/STM32F1xx_HAL_Driver/Inc/stm32f1xx_ll_i2c.h **** /**
1239:Drivers/STM32F1xx_HAL_Driver/Inc/stm32f1xx_ll_i2c.h ****   * @brief  Indicate the status of Arbitration lost flag.
1240:Drivers/STM32F1xx_HAL_Driver/Inc/stm32f1xx_ll_i2c.h ****   * @note   RESET: Clear default value.
1241:Drivers/STM32F1xx_HAL_Driver/Inc/stm32f1xx_ll_i2c.h ****   *         SET: When arbitration lost.
1242:Drivers/STM32F1xx_HAL_Driver/Inc/stm32f1xx_ll_i2c.h ****   * @rmtoll SR1          ARLO          LL_I2C_IsActiveFlag_ARLO
1243:Drivers/STM32F1xx_HAL_Driver/Inc/stm32f1xx_ll_i2c.h ****   * @param  I2Cx I2C Instance.
1244:Drivers/STM32F1xx_HAL_Driver/Inc/stm32f1xx_ll_i2c.h ****   * @retval State of bit (1 or 0).
1245:Drivers/STM32F1xx_HAL_Driver/Inc/stm32f1xx_ll_i2c.h ****   */
1246:Drivers/STM32F1xx_HAL_Driver/Inc/stm32f1xx_ll_i2c.h **** __STATIC_INLINE uint32_t LL_I2C_IsActiveFlag_ARLO(I2C_TypeDef *I2Cx)
1247:Drivers/STM32F1xx_HAL_Driver/Inc/stm32f1xx_ll_i2c.h **** {
1248:Drivers/STM32F1xx_HAL_Driver/Inc/stm32f1xx_ll_i2c.h ****   return (READ_BIT(I2Cx->SR1, I2C_SR1_ARLO) == (I2C_SR1_ARLO));
1249:Drivers/STM32F1xx_HAL_Driver/Inc/stm32f1xx_ll_i2c.h **** }
1250:Drivers/STM32F1xx_HAL_Driver/Inc/stm32f1xx_ll_i2c.h **** 
1251:Drivers/STM32F1xx_HAL_Driver/Inc/stm32f1xx_ll_i2c.h **** /**
1252:Drivers/STM32F1xx_HAL_Driver/Inc/stm32f1xx_ll_i2c.h ****   * @brief  Indicate the status of Overrun/Underrun flag.
1253:Drivers/STM32F1xx_HAL_Driver/Inc/stm32f1xx_ll_i2c.h ****   * @note   RESET: Clear default value.
1254:Drivers/STM32F1xx_HAL_Driver/Inc/stm32f1xx_ll_i2c.h ****   *         SET: When an overrun/underrun error occurs (Clock Stretching Disabled).
1255:Drivers/STM32F1xx_HAL_Driver/Inc/stm32f1xx_ll_i2c.h ****   * @rmtoll SR1          OVR           LL_I2C_IsActiveFlag_OVR
1256:Drivers/STM32F1xx_HAL_Driver/Inc/stm32f1xx_ll_i2c.h ****   * @param  I2Cx I2C Instance.
1257:Drivers/STM32F1xx_HAL_Driver/Inc/stm32f1xx_ll_i2c.h ****   * @retval State of bit (1 or 0).
1258:Drivers/STM32F1xx_HAL_Driver/Inc/stm32f1xx_ll_i2c.h ****   */
1259:Drivers/STM32F1xx_HAL_Driver/Inc/stm32f1xx_ll_i2c.h **** __STATIC_INLINE uint32_t LL_I2C_IsActiveFlag_OVR(I2C_TypeDef *I2Cx)
1260:Drivers/STM32F1xx_HAL_Driver/Inc/stm32f1xx_ll_i2c.h **** {
1261:Drivers/STM32F1xx_HAL_Driver/Inc/stm32f1xx_ll_i2c.h ****   return (READ_BIT(I2Cx->SR1, I2C_SR1_OVR) == (I2C_SR1_OVR));
1262:Drivers/STM32F1xx_HAL_Driver/Inc/stm32f1xx_ll_i2c.h **** }
1263:Drivers/STM32F1xx_HAL_Driver/Inc/stm32f1xx_ll_i2c.h **** 
1264:Drivers/STM32F1xx_HAL_Driver/Inc/stm32f1xx_ll_i2c.h **** /**
1265:Drivers/STM32F1xx_HAL_Driver/Inc/stm32f1xx_ll_i2c.h ****   * @brief  Indicate the status of SMBus PEC error flag in reception.
1266:Drivers/STM32F1xx_HAL_Driver/Inc/stm32f1xx_ll_i2c.h ****   * @note   Macro @ref IS_SMBUS_ALL_INSTANCE(I2Cx) can be used to check whether or not
1267:Drivers/STM32F1xx_HAL_Driver/Inc/stm32f1xx_ll_i2c.h ****   *         SMBus feature is supported by the I2Cx Instance.
1268:Drivers/STM32F1xx_HAL_Driver/Inc/stm32f1xx_ll_i2c.h ****   * @rmtoll SR1          PECERR        LL_I2C_IsActiveSMBusFlag_PECERR
1269:Drivers/STM32F1xx_HAL_Driver/Inc/stm32f1xx_ll_i2c.h ****   * @param  I2Cx I2C Instance.
1270:Drivers/STM32F1xx_HAL_Driver/Inc/stm32f1xx_ll_i2c.h ****   * @retval State of bit (1 or 0).
1271:Drivers/STM32F1xx_HAL_Driver/Inc/stm32f1xx_ll_i2c.h ****   */
1272:Drivers/STM32F1xx_HAL_Driver/Inc/stm32f1xx_ll_i2c.h **** __STATIC_INLINE uint32_t LL_I2C_IsActiveSMBusFlag_PECERR(I2C_TypeDef *I2Cx)
1273:Drivers/STM32F1xx_HAL_Driver/Inc/stm32f1xx_ll_i2c.h **** {
1274:Drivers/STM32F1xx_HAL_Driver/Inc/stm32f1xx_ll_i2c.h ****   return (READ_BIT(I2Cx->SR1, I2C_SR1_PECERR) == (I2C_SR1_PECERR));
1275:Drivers/STM32F1xx_HAL_Driver/Inc/stm32f1xx_ll_i2c.h **** }
1276:Drivers/STM32F1xx_HAL_Driver/Inc/stm32f1xx_ll_i2c.h **** 
1277:Drivers/STM32F1xx_HAL_Driver/Inc/stm32f1xx_ll_i2c.h **** /**
1278:Drivers/STM32F1xx_HAL_Driver/Inc/stm32f1xx_ll_i2c.h ****   * @brief  Indicate the status of SMBus Timeout detection flag.
1279:Drivers/STM32F1xx_HAL_Driver/Inc/stm32f1xx_ll_i2c.h ****   * @note   Macro @ref IS_SMBUS_ALL_INSTANCE(I2Cx) can be used to check whether or not
1280:Drivers/STM32F1xx_HAL_Driver/Inc/stm32f1xx_ll_i2c.h ****   *         SMBus feature is supported by the I2Cx Instance.
1281:Drivers/STM32F1xx_HAL_Driver/Inc/stm32f1xx_ll_i2c.h ****   * @rmtoll SR1          TIMEOUT       LL_I2C_IsActiveSMBusFlag_TIMEOUT
1282:Drivers/STM32F1xx_HAL_Driver/Inc/stm32f1xx_ll_i2c.h ****   * @param  I2Cx I2C Instance.
1283:Drivers/STM32F1xx_HAL_Driver/Inc/stm32f1xx_ll_i2c.h ****   * @retval State of bit (1 or 0).
1284:Drivers/STM32F1xx_HAL_Driver/Inc/stm32f1xx_ll_i2c.h ****   */
1285:Drivers/STM32F1xx_HAL_Driver/Inc/stm32f1xx_ll_i2c.h **** __STATIC_INLINE uint32_t LL_I2C_IsActiveSMBusFlag_TIMEOUT(I2C_TypeDef *I2Cx)
1286:Drivers/STM32F1xx_HAL_Driver/Inc/stm32f1xx_ll_i2c.h **** {
1287:Drivers/STM32F1xx_HAL_Driver/Inc/stm32f1xx_ll_i2c.h ****   return (READ_BIT(I2Cx->SR1, I2C_SR1_TIMEOUT) == (I2C_SR1_TIMEOUT));
1288:Drivers/STM32F1xx_HAL_Driver/Inc/stm32f1xx_ll_i2c.h **** }
1289:Drivers/STM32F1xx_HAL_Driver/Inc/stm32f1xx_ll_i2c.h **** 
1290:Drivers/STM32F1xx_HAL_Driver/Inc/stm32f1xx_ll_i2c.h **** /**
1291:Drivers/STM32F1xx_HAL_Driver/Inc/stm32f1xx_ll_i2c.h ****   * @brief  Indicate the status of SMBus alert flag.
ARM GAS  /tmp/ccSSjYDs.s 			page 45


1292:Drivers/STM32F1xx_HAL_Driver/Inc/stm32f1xx_ll_i2c.h ****   * @note   Macro @ref IS_SMBUS_ALL_INSTANCE(I2Cx) can be used to check whether or not
1293:Drivers/STM32F1xx_HAL_Driver/Inc/stm32f1xx_ll_i2c.h ****   *         SMBus feature is supported by the I2Cx Instance.
1294:Drivers/STM32F1xx_HAL_Driver/Inc/stm32f1xx_ll_i2c.h ****   * @rmtoll SR1          SMBALERT      LL_I2C_IsActiveSMBusFlag_ALERT
1295:Drivers/STM32F1xx_HAL_Driver/Inc/stm32f1xx_ll_i2c.h ****   * @param  I2Cx I2C Instance.
1296:Drivers/STM32F1xx_HAL_Driver/Inc/stm32f1xx_ll_i2c.h ****   * @retval State of bit (1 or 0).
1297:Drivers/STM32F1xx_HAL_Driver/Inc/stm32f1xx_ll_i2c.h ****   */
1298:Drivers/STM32F1xx_HAL_Driver/Inc/stm32f1xx_ll_i2c.h **** __STATIC_INLINE uint32_t LL_I2C_IsActiveSMBusFlag_ALERT(I2C_TypeDef *I2Cx)
1299:Drivers/STM32F1xx_HAL_Driver/Inc/stm32f1xx_ll_i2c.h **** {
1300:Drivers/STM32F1xx_HAL_Driver/Inc/stm32f1xx_ll_i2c.h ****   return (READ_BIT(I2Cx->SR1, I2C_SR1_SMBALERT) == (I2C_SR1_SMBALERT));
1301:Drivers/STM32F1xx_HAL_Driver/Inc/stm32f1xx_ll_i2c.h **** }
1302:Drivers/STM32F1xx_HAL_Driver/Inc/stm32f1xx_ll_i2c.h **** 
1303:Drivers/STM32F1xx_HAL_Driver/Inc/stm32f1xx_ll_i2c.h **** /**
1304:Drivers/STM32F1xx_HAL_Driver/Inc/stm32f1xx_ll_i2c.h ****   * @brief  Indicate the status of Bus Busy flag.
1305:Drivers/STM32F1xx_HAL_Driver/Inc/stm32f1xx_ll_i2c.h ****   * @note   RESET: Clear default value.
1306:Drivers/STM32F1xx_HAL_Driver/Inc/stm32f1xx_ll_i2c.h ****   *         SET: When a Start condition is detected.
1307:Drivers/STM32F1xx_HAL_Driver/Inc/stm32f1xx_ll_i2c.h ****   * @rmtoll SR2          BUSY          LL_I2C_IsActiveFlag_BUSY
1308:Drivers/STM32F1xx_HAL_Driver/Inc/stm32f1xx_ll_i2c.h ****   * @param  I2Cx I2C Instance.
1309:Drivers/STM32F1xx_HAL_Driver/Inc/stm32f1xx_ll_i2c.h ****   * @retval State of bit (1 or 0).
1310:Drivers/STM32F1xx_HAL_Driver/Inc/stm32f1xx_ll_i2c.h ****   */
1311:Drivers/STM32F1xx_HAL_Driver/Inc/stm32f1xx_ll_i2c.h **** __STATIC_INLINE uint32_t LL_I2C_IsActiveFlag_BUSY(I2C_TypeDef *I2Cx)
1312:Drivers/STM32F1xx_HAL_Driver/Inc/stm32f1xx_ll_i2c.h **** {
1313:Drivers/STM32F1xx_HAL_Driver/Inc/stm32f1xx_ll_i2c.h ****   return (READ_BIT(I2Cx->SR2, I2C_SR2_BUSY) == (I2C_SR2_BUSY));
1314:Drivers/STM32F1xx_HAL_Driver/Inc/stm32f1xx_ll_i2c.h **** }
1315:Drivers/STM32F1xx_HAL_Driver/Inc/stm32f1xx_ll_i2c.h **** 
1316:Drivers/STM32F1xx_HAL_Driver/Inc/stm32f1xx_ll_i2c.h **** /**
1317:Drivers/STM32F1xx_HAL_Driver/Inc/stm32f1xx_ll_i2c.h ****   * @brief  Indicate the status of Dual flag.
1318:Drivers/STM32F1xx_HAL_Driver/Inc/stm32f1xx_ll_i2c.h ****   * @note   RESET: Received address matched with OAR1.
1319:Drivers/STM32F1xx_HAL_Driver/Inc/stm32f1xx_ll_i2c.h ****   *         SET: Received address matched with OAR2.
1320:Drivers/STM32F1xx_HAL_Driver/Inc/stm32f1xx_ll_i2c.h ****   * @rmtoll SR2          DUALF         LL_I2C_IsActiveFlag_DUAL
1321:Drivers/STM32F1xx_HAL_Driver/Inc/stm32f1xx_ll_i2c.h ****   * @param  I2Cx I2C Instance.
1322:Drivers/STM32F1xx_HAL_Driver/Inc/stm32f1xx_ll_i2c.h ****   * @retval State of bit (1 or 0).
1323:Drivers/STM32F1xx_HAL_Driver/Inc/stm32f1xx_ll_i2c.h ****   */
1324:Drivers/STM32F1xx_HAL_Driver/Inc/stm32f1xx_ll_i2c.h **** __STATIC_INLINE uint32_t LL_I2C_IsActiveFlag_DUAL(I2C_TypeDef *I2Cx)
1325:Drivers/STM32F1xx_HAL_Driver/Inc/stm32f1xx_ll_i2c.h **** {
1326:Drivers/STM32F1xx_HAL_Driver/Inc/stm32f1xx_ll_i2c.h ****   return (READ_BIT(I2Cx->SR2, I2C_SR2_DUALF) == (I2C_SR2_DUALF));
1327:Drivers/STM32F1xx_HAL_Driver/Inc/stm32f1xx_ll_i2c.h **** }
1328:Drivers/STM32F1xx_HAL_Driver/Inc/stm32f1xx_ll_i2c.h **** 
1329:Drivers/STM32F1xx_HAL_Driver/Inc/stm32f1xx_ll_i2c.h **** /**
1330:Drivers/STM32F1xx_HAL_Driver/Inc/stm32f1xx_ll_i2c.h ****   * @brief  Indicate the status of SMBus Host address reception (Slave mode).
1331:Drivers/STM32F1xx_HAL_Driver/Inc/stm32f1xx_ll_i2c.h ****   * @note   Macro @ref IS_SMBUS_ALL_INSTANCE(I2Cx) can be used to check whether or not
1332:Drivers/STM32F1xx_HAL_Driver/Inc/stm32f1xx_ll_i2c.h ****   *         SMBus feature is supported by the I2Cx Instance.
1333:Drivers/STM32F1xx_HAL_Driver/Inc/stm32f1xx_ll_i2c.h ****   * @note   RESET: No SMBus Host address
1334:Drivers/STM32F1xx_HAL_Driver/Inc/stm32f1xx_ll_i2c.h ****   *         SET: SMBus Host address received.
1335:Drivers/STM32F1xx_HAL_Driver/Inc/stm32f1xx_ll_i2c.h ****   * @note   This status is cleared by hardware after a STOP condition or repeated START condition.
1336:Drivers/STM32F1xx_HAL_Driver/Inc/stm32f1xx_ll_i2c.h ****   * @rmtoll SR2          SMBHOST       LL_I2C_IsActiveSMBusFlag_SMBHOST
1337:Drivers/STM32F1xx_HAL_Driver/Inc/stm32f1xx_ll_i2c.h ****   * @param  I2Cx I2C Instance.
1338:Drivers/STM32F1xx_HAL_Driver/Inc/stm32f1xx_ll_i2c.h ****   * @retval State of bit (1 or 0).
1339:Drivers/STM32F1xx_HAL_Driver/Inc/stm32f1xx_ll_i2c.h ****   */
1340:Drivers/STM32F1xx_HAL_Driver/Inc/stm32f1xx_ll_i2c.h **** __STATIC_INLINE uint32_t LL_I2C_IsActiveSMBusFlag_SMBHOST(I2C_TypeDef *I2Cx)
1341:Drivers/STM32F1xx_HAL_Driver/Inc/stm32f1xx_ll_i2c.h **** {
1342:Drivers/STM32F1xx_HAL_Driver/Inc/stm32f1xx_ll_i2c.h ****   return (READ_BIT(I2Cx->SR2, I2C_SR2_SMBHOST) == (I2C_SR2_SMBHOST));
1343:Drivers/STM32F1xx_HAL_Driver/Inc/stm32f1xx_ll_i2c.h **** }
1344:Drivers/STM32F1xx_HAL_Driver/Inc/stm32f1xx_ll_i2c.h **** 
1345:Drivers/STM32F1xx_HAL_Driver/Inc/stm32f1xx_ll_i2c.h **** /**
1346:Drivers/STM32F1xx_HAL_Driver/Inc/stm32f1xx_ll_i2c.h ****   * @brief  Indicate the status of SMBus Device default address reception (Slave mode).
1347:Drivers/STM32F1xx_HAL_Driver/Inc/stm32f1xx_ll_i2c.h ****   * @note   Macro @ref IS_SMBUS_ALL_INSTANCE(I2Cx) can be used to check whether or not
1348:Drivers/STM32F1xx_HAL_Driver/Inc/stm32f1xx_ll_i2c.h ****   *         SMBus feature is supported by the I2Cx Instance.
ARM GAS  /tmp/ccSSjYDs.s 			page 46


1349:Drivers/STM32F1xx_HAL_Driver/Inc/stm32f1xx_ll_i2c.h ****   * @note   RESET: No SMBus Device default address
1350:Drivers/STM32F1xx_HAL_Driver/Inc/stm32f1xx_ll_i2c.h ****   *         SET: SMBus Device default address received.
1351:Drivers/STM32F1xx_HAL_Driver/Inc/stm32f1xx_ll_i2c.h ****   * @note   This status is cleared by hardware after a STOP condition or repeated START condition.
1352:Drivers/STM32F1xx_HAL_Driver/Inc/stm32f1xx_ll_i2c.h ****   * @rmtoll SR2          SMBDEFAULT    LL_I2C_IsActiveSMBusFlag_SMBDEFAULT
1353:Drivers/STM32F1xx_HAL_Driver/Inc/stm32f1xx_ll_i2c.h ****   * @param  I2Cx I2C Instance.
1354:Drivers/STM32F1xx_HAL_Driver/Inc/stm32f1xx_ll_i2c.h ****   * @retval State of bit (1 or 0).
1355:Drivers/STM32F1xx_HAL_Driver/Inc/stm32f1xx_ll_i2c.h ****   */
1356:Drivers/STM32F1xx_HAL_Driver/Inc/stm32f1xx_ll_i2c.h **** __STATIC_INLINE uint32_t LL_I2C_IsActiveSMBusFlag_SMBDEFAULT(I2C_TypeDef *I2Cx)
1357:Drivers/STM32F1xx_HAL_Driver/Inc/stm32f1xx_ll_i2c.h **** {
1358:Drivers/STM32F1xx_HAL_Driver/Inc/stm32f1xx_ll_i2c.h ****   return (READ_BIT(I2Cx->SR2, I2C_SR2_SMBDEFAULT) == (I2C_SR2_SMBDEFAULT));
1359:Drivers/STM32F1xx_HAL_Driver/Inc/stm32f1xx_ll_i2c.h **** }
1360:Drivers/STM32F1xx_HAL_Driver/Inc/stm32f1xx_ll_i2c.h **** 
1361:Drivers/STM32F1xx_HAL_Driver/Inc/stm32f1xx_ll_i2c.h **** /**
1362:Drivers/STM32F1xx_HAL_Driver/Inc/stm32f1xx_ll_i2c.h ****   * @brief  Indicate the status of General call address reception (Slave mode).
1363:Drivers/STM32F1xx_HAL_Driver/Inc/stm32f1xx_ll_i2c.h ****   * @note   RESET: No General call address
1364:Drivers/STM32F1xx_HAL_Driver/Inc/stm32f1xx_ll_i2c.h ****   *         SET: General call address received.
1365:Drivers/STM32F1xx_HAL_Driver/Inc/stm32f1xx_ll_i2c.h ****   * @note   This status is cleared by hardware after a STOP condition or repeated START condition.
1366:Drivers/STM32F1xx_HAL_Driver/Inc/stm32f1xx_ll_i2c.h ****   * @rmtoll SR2          GENCALL       LL_I2C_IsActiveFlag_GENCALL
1367:Drivers/STM32F1xx_HAL_Driver/Inc/stm32f1xx_ll_i2c.h ****   * @param  I2Cx I2C Instance.
1368:Drivers/STM32F1xx_HAL_Driver/Inc/stm32f1xx_ll_i2c.h ****   * @retval State of bit (1 or 0).
1369:Drivers/STM32F1xx_HAL_Driver/Inc/stm32f1xx_ll_i2c.h ****   */
1370:Drivers/STM32F1xx_HAL_Driver/Inc/stm32f1xx_ll_i2c.h **** __STATIC_INLINE uint32_t LL_I2C_IsActiveFlag_GENCALL(I2C_TypeDef *I2Cx)
1371:Drivers/STM32F1xx_HAL_Driver/Inc/stm32f1xx_ll_i2c.h **** {
1372:Drivers/STM32F1xx_HAL_Driver/Inc/stm32f1xx_ll_i2c.h ****   return (READ_BIT(I2Cx->SR2, I2C_SR2_GENCALL) == (I2C_SR2_GENCALL));
1373:Drivers/STM32F1xx_HAL_Driver/Inc/stm32f1xx_ll_i2c.h **** }
1374:Drivers/STM32F1xx_HAL_Driver/Inc/stm32f1xx_ll_i2c.h **** 
1375:Drivers/STM32F1xx_HAL_Driver/Inc/stm32f1xx_ll_i2c.h **** /**
1376:Drivers/STM32F1xx_HAL_Driver/Inc/stm32f1xx_ll_i2c.h ****   * @brief  Indicate the status of Master/Slave flag.
1377:Drivers/STM32F1xx_HAL_Driver/Inc/stm32f1xx_ll_i2c.h ****   * @note   RESET: Slave Mode.
1378:Drivers/STM32F1xx_HAL_Driver/Inc/stm32f1xx_ll_i2c.h ****   *         SET: Master Mode.
1379:Drivers/STM32F1xx_HAL_Driver/Inc/stm32f1xx_ll_i2c.h ****   * @rmtoll SR2          MSL           LL_I2C_IsActiveFlag_MSL
1380:Drivers/STM32F1xx_HAL_Driver/Inc/stm32f1xx_ll_i2c.h ****   * @param  I2Cx I2C Instance.
1381:Drivers/STM32F1xx_HAL_Driver/Inc/stm32f1xx_ll_i2c.h ****   * @retval State of bit (1 or 0).
1382:Drivers/STM32F1xx_HAL_Driver/Inc/stm32f1xx_ll_i2c.h ****   */
1383:Drivers/STM32F1xx_HAL_Driver/Inc/stm32f1xx_ll_i2c.h **** __STATIC_INLINE uint32_t LL_I2C_IsActiveFlag_MSL(I2C_TypeDef *I2Cx)
1384:Drivers/STM32F1xx_HAL_Driver/Inc/stm32f1xx_ll_i2c.h **** {
1385:Drivers/STM32F1xx_HAL_Driver/Inc/stm32f1xx_ll_i2c.h ****   return (READ_BIT(I2Cx->SR2, I2C_SR2_MSL) == (I2C_SR2_MSL));
1386:Drivers/STM32F1xx_HAL_Driver/Inc/stm32f1xx_ll_i2c.h **** }
1387:Drivers/STM32F1xx_HAL_Driver/Inc/stm32f1xx_ll_i2c.h **** 
1388:Drivers/STM32F1xx_HAL_Driver/Inc/stm32f1xx_ll_i2c.h **** /**
1389:Drivers/STM32F1xx_HAL_Driver/Inc/stm32f1xx_ll_i2c.h ****   * @brief  Clear Address Matched flag.
1390:Drivers/STM32F1xx_HAL_Driver/Inc/stm32f1xx_ll_i2c.h ****   * @note   Clearing this flag is done by a read access to the I2Cx_SR1
1391:Drivers/STM32F1xx_HAL_Driver/Inc/stm32f1xx_ll_i2c.h ****   *         register followed by a read access to the I2Cx_SR2 register.
1392:Drivers/STM32F1xx_HAL_Driver/Inc/stm32f1xx_ll_i2c.h ****   * @rmtoll SR1          ADDR          LL_I2C_ClearFlag_ADDR
1393:Drivers/STM32F1xx_HAL_Driver/Inc/stm32f1xx_ll_i2c.h ****   * @param  I2Cx I2C Instance.
1394:Drivers/STM32F1xx_HAL_Driver/Inc/stm32f1xx_ll_i2c.h ****   * @retval None
1395:Drivers/STM32F1xx_HAL_Driver/Inc/stm32f1xx_ll_i2c.h ****   */
1396:Drivers/STM32F1xx_HAL_Driver/Inc/stm32f1xx_ll_i2c.h **** __STATIC_INLINE void LL_I2C_ClearFlag_ADDR(I2C_TypeDef *I2Cx)
1397:Drivers/STM32F1xx_HAL_Driver/Inc/stm32f1xx_ll_i2c.h **** {
1398:Drivers/STM32F1xx_HAL_Driver/Inc/stm32f1xx_ll_i2c.h ****   __IO uint32_t tmpreg;
1399:Drivers/STM32F1xx_HAL_Driver/Inc/stm32f1xx_ll_i2c.h ****   tmpreg = I2Cx->SR1;
1400:Drivers/STM32F1xx_HAL_Driver/Inc/stm32f1xx_ll_i2c.h ****   (void) tmpreg;
1401:Drivers/STM32F1xx_HAL_Driver/Inc/stm32f1xx_ll_i2c.h ****   tmpreg = I2Cx->SR2;
1402:Drivers/STM32F1xx_HAL_Driver/Inc/stm32f1xx_ll_i2c.h ****   (void) tmpreg;
1403:Drivers/STM32F1xx_HAL_Driver/Inc/stm32f1xx_ll_i2c.h **** }
1404:Drivers/STM32F1xx_HAL_Driver/Inc/stm32f1xx_ll_i2c.h **** 
1405:Drivers/STM32F1xx_HAL_Driver/Inc/stm32f1xx_ll_i2c.h **** /**
ARM GAS  /tmp/ccSSjYDs.s 			page 47


1406:Drivers/STM32F1xx_HAL_Driver/Inc/stm32f1xx_ll_i2c.h ****   * @brief  Clear Acknowledge failure flag.
1407:Drivers/STM32F1xx_HAL_Driver/Inc/stm32f1xx_ll_i2c.h ****   * @rmtoll SR1          AF            LL_I2C_ClearFlag_AF
1408:Drivers/STM32F1xx_HAL_Driver/Inc/stm32f1xx_ll_i2c.h ****   * @param  I2Cx I2C Instance.
1409:Drivers/STM32F1xx_HAL_Driver/Inc/stm32f1xx_ll_i2c.h ****   * @retval None
1410:Drivers/STM32F1xx_HAL_Driver/Inc/stm32f1xx_ll_i2c.h ****   */
1411:Drivers/STM32F1xx_HAL_Driver/Inc/stm32f1xx_ll_i2c.h **** __STATIC_INLINE void LL_I2C_ClearFlag_AF(I2C_TypeDef *I2Cx)
1412:Drivers/STM32F1xx_HAL_Driver/Inc/stm32f1xx_ll_i2c.h **** {
1413:Drivers/STM32F1xx_HAL_Driver/Inc/stm32f1xx_ll_i2c.h ****   CLEAR_BIT(I2Cx->SR1, I2C_SR1_AF);
1414:Drivers/STM32F1xx_HAL_Driver/Inc/stm32f1xx_ll_i2c.h **** }
1415:Drivers/STM32F1xx_HAL_Driver/Inc/stm32f1xx_ll_i2c.h **** 
1416:Drivers/STM32F1xx_HAL_Driver/Inc/stm32f1xx_ll_i2c.h **** /**
1417:Drivers/STM32F1xx_HAL_Driver/Inc/stm32f1xx_ll_i2c.h ****   * @brief  Clear Stop detection flag.
1418:Drivers/STM32F1xx_HAL_Driver/Inc/stm32f1xx_ll_i2c.h ****   * @note   Clearing this flag is done by a read access to the I2Cx_SR1
1419:Drivers/STM32F1xx_HAL_Driver/Inc/stm32f1xx_ll_i2c.h ****   *         register followed by a write access to I2Cx_CR1 register.
1420:Drivers/STM32F1xx_HAL_Driver/Inc/stm32f1xx_ll_i2c.h ****   * @rmtoll SR1          STOPF         LL_I2C_ClearFlag_STOP\n
1421:Drivers/STM32F1xx_HAL_Driver/Inc/stm32f1xx_ll_i2c.h ****   *         CR1          PE            LL_I2C_ClearFlag_STOP
1422:Drivers/STM32F1xx_HAL_Driver/Inc/stm32f1xx_ll_i2c.h ****   * @param  I2Cx I2C Instance.
1423:Drivers/STM32F1xx_HAL_Driver/Inc/stm32f1xx_ll_i2c.h ****   * @retval None
1424:Drivers/STM32F1xx_HAL_Driver/Inc/stm32f1xx_ll_i2c.h ****   */
1425:Drivers/STM32F1xx_HAL_Driver/Inc/stm32f1xx_ll_i2c.h **** __STATIC_INLINE void LL_I2C_ClearFlag_STOP(I2C_TypeDef *I2Cx)
1426:Drivers/STM32F1xx_HAL_Driver/Inc/stm32f1xx_ll_i2c.h **** {
1427:Drivers/STM32F1xx_HAL_Driver/Inc/stm32f1xx_ll_i2c.h ****   __IO uint32_t tmpreg;
1428:Drivers/STM32F1xx_HAL_Driver/Inc/stm32f1xx_ll_i2c.h ****   tmpreg = I2Cx->SR1;
1429:Drivers/STM32F1xx_HAL_Driver/Inc/stm32f1xx_ll_i2c.h ****   (void) tmpreg;
1430:Drivers/STM32F1xx_HAL_Driver/Inc/stm32f1xx_ll_i2c.h ****   SET_BIT(I2Cx->CR1, I2C_CR1_PE);
1431:Drivers/STM32F1xx_HAL_Driver/Inc/stm32f1xx_ll_i2c.h **** }
1432:Drivers/STM32F1xx_HAL_Driver/Inc/stm32f1xx_ll_i2c.h **** 
1433:Drivers/STM32F1xx_HAL_Driver/Inc/stm32f1xx_ll_i2c.h **** /**
1434:Drivers/STM32F1xx_HAL_Driver/Inc/stm32f1xx_ll_i2c.h ****   * @brief  Clear Bus error flag.
1435:Drivers/STM32F1xx_HAL_Driver/Inc/stm32f1xx_ll_i2c.h ****   * @rmtoll SR1          BERR          LL_I2C_ClearFlag_BERR
1436:Drivers/STM32F1xx_HAL_Driver/Inc/stm32f1xx_ll_i2c.h ****   * @param  I2Cx I2C Instance.
1437:Drivers/STM32F1xx_HAL_Driver/Inc/stm32f1xx_ll_i2c.h ****   * @retval None
1438:Drivers/STM32F1xx_HAL_Driver/Inc/stm32f1xx_ll_i2c.h ****   */
1439:Drivers/STM32F1xx_HAL_Driver/Inc/stm32f1xx_ll_i2c.h **** __STATIC_INLINE void LL_I2C_ClearFlag_BERR(I2C_TypeDef *I2Cx)
1440:Drivers/STM32F1xx_HAL_Driver/Inc/stm32f1xx_ll_i2c.h **** {
1441:Drivers/STM32F1xx_HAL_Driver/Inc/stm32f1xx_ll_i2c.h ****   CLEAR_BIT(I2Cx->SR1, I2C_SR1_BERR);
1442:Drivers/STM32F1xx_HAL_Driver/Inc/stm32f1xx_ll_i2c.h **** }
1443:Drivers/STM32F1xx_HAL_Driver/Inc/stm32f1xx_ll_i2c.h **** 
1444:Drivers/STM32F1xx_HAL_Driver/Inc/stm32f1xx_ll_i2c.h **** /**
1445:Drivers/STM32F1xx_HAL_Driver/Inc/stm32f1xx_ll_i2c.h ****   * @brief  Clear Arbitration lost flag.
1446:Drivers/STM32F1xx_HAL_Driver/Inc/stm32f1xx_ll_i2c.h ****   * @rmtoll SR1          ARLO          LL_I2C_ClearFlag_ARLO
1447:Drivers/STM32F1xx_HAL_Driver/Inc/stm32f1xx_ll_i2c.h ****   * @param  I2Cx I2C Instance.
1448:Drivers/STM32F1xx_HAL_Driver/Inc/stm32f1xx_ll_i2c.h ****   * @retval None
1449:Drivers/STM32F1xx_HAL_Driver/Inc/stm32f1xx_ll_i2c.h ****   */
1450:Drivers/STM32F1xx_HAL_Driver/Inc/stm32f1xx_ll_i2c.h **** __STATIC_INLINE void LL_I2C_ClearFlag_ARLO(I2C_TypeDef *I2Cx)
1451:Drivers/STM32F1xx_HAL_Driver/Inc/stm32f1xx_ll_i2c.h **** {
1452:Drivers/STM32F1xx_HAL_Driver/Inc/stm32f1xx_ll_i2c.h ****   CLEAR_BIT(I2Cx->SR1, I2C_SR1_ARLO);
1453:Drivers/STM32F1xx_HAL_Driver/Inc/stm32f1xx_ll_i2c.h **** }
1454:Drivers/STM32F1xx_HAL_Driver/Inc/stm32f1xx_ll_i2c.h **** 
1455:Drivers/STM32F1xx_HAL_Driver/Inc/stm32f1xx_ll_i2c.h **** /**
1456:Drivers/STM32F1xx_HAL_Driver/Inc/stm32f1xx_ll_i2c.h ****   * @brief  Clear Overrun/Underrun flag.
1457:Drivers/STM32F1xx_HAL_Driver/Inc/stm32f1xx_ll_i2c.h ****   * @rmtoll SR1          OVR           LL_I2C_ClearFlag_OVR
1458:Drivers/STM32F1xx_HAL_Driver/Inc/stm32f1xx_ll_i2c.h ****   * @param  I2Cx I2C Instance.
1459:Drivers/STM32F1xx_HAL_Driver/Inc/stm32f1xx_ll_i2c.h ****   * @retval None
1460:Drivers/STM32F1xx_HAL_Driver/Inc/stm32f1xx_ll_i2c.h ****   */
1461:Drivers/STM32F1xx_HAL_Driver/Inc/stm32f1xx_ll_i2c.h **** __STATIC_INLINE void LL_I2C_ClearFlag_OVR(I2C_TypeDef *I2Cx)
1462:Drivers/STM32F1xx_HAL_Driver/Inc/stm32f1xx_ll_i2c.h **** {
ARM GAS  /tmp/ccSSjYDs.s 			page 48


1463:Drivers/STM32F1xx_HAL_Driver/Inc/stm32f1xx_ll_i2c.h ****   CLEAR_BIT(I2Cx->SR1, I2C_SR1_OVR);
1464:Drivers/STM32F1xx_HAL_Driver/Inc/stm32f1xx_ll_i2c.h **** }
1465:Drivers/STM32F1xx_HAL_Driver/Inc/stm32f1xx_ll_i2c.h **** 
1466:Drivers/STM32F1xx_HAL_Driver/Inc/stm32f1xx_ll_i2c.h **** /**
1467:Drivers/STM32F1xx_HAL_Driver/Inc/stm32f1xx_ll_i2c.h ****   * @brief  Clear SMBus PEC error flag.
1468:Drivers/STM32F1xx_HAL_Driver/Inc/stm32f1xx_ll_i2c.h ****   * @rmtoll SR1          PECERR        LL_I2C_ClearSMBusFlag_PECERR
1469:Drivers/STM32F1xx_HAL_Driver/Inc/stm32f1xx_ll_i2c.h ****   * @param  I2Cx I2C Instance.
1470:Drivers/STM32F1xx_HAL_Driver/Inc/stm32f1xx_ll_i2c.h ****   * @retval None
1471:Drivers/STM32F1xx_HAL_Driver/Inc/stm32f1xx_ll_i2c.h ****   */
